
./finish/addi.elf:     file format elf64-littleriscv
./finish/addi.elf
architecture: riscv:rv64, flags 0x00000112:
EXEC_P, HAS_SYMS, D_PAGED
start address 0x0000000000000000

Program Header:
0x70000003 off    0x00000000000012cc vaddr 0x0000000000000000 paddr 0x0000000000000000 align 2**0
         filesz 0x000000000000001a memsz 0x0000000000000000 flags r--
    LOAD off    0x0000000000001000 vaddr 0x0000000000000000 paddr 0x0000000000000000 align 2**12
         filesz 0x00000000000002cc memsz 0x00000000000002cc flags r-x

Sections:
Idx Name          Size      VMA               LMA               File off  Algn
  0 .text         000002cc  0000000000000000  0000000000000000  00001000  2**2
                  CONTENTS, ALLOC, LOAD, READONLY, CODE
  1 .riscv.attributes 0000001a  0000000000000000  0000000000000000  000012cc  2**0
                  CONTENTS, READONLY
SYMBOL TABLE:
0000000000000000 l    d  .text	0000000000000000 .text
0000000000000000 l    d  .riscv.attributes	0000000000000000 .riscv.attributes
0000000000000000 l    df *ABS*	0000000000000000 setup.o
0000000000000000 l       .text	0000000000000000 _start
0000000000000000 l       .text	0000000000000000 init_stack
0000000000000008 l       .text	0000000000000000 SystemInit
000000000000000c l       .text	0000000000000000 SystemExit
000000000000001c l       .text	0000000000000000 dead_loop
0000000000000000 l    df *ABS*	0000000000000000 addi.o
0000000000000028 l       .text	0000000000000000 addi_2
00000000000002bc l       .text	0000000000000000 failed
000000000000003c l       .text	0000000000000000 addi_3
0000000000000050 l       .text	0000000000000000 addi_4
0000000000000064 l       .text	0000000000000000 addi_5
0000000000000078 l       .text	0000000000000000 addi_6
000000000000008c l       .text	0000000000000000 addi_7
00000000000000a8 l       .text	0000000000000000 addi_8
00000000000000bc l       .text	0000000000000000 addi_9
00000000000000d8 l       .text	0000000000000000 addi_10
00000000000000f8 l       .text	0000000000000000 addi_11
0000000000000110 l       .text	0000000000000000 addi_12
000000000000012c l       .text	0000000000000000 addi_13
0000000000000140 l       .text	0000000000000000 addi_14
0000000000000154 l       .text	0000000000000000 addi_15
0000000000000168 l       .text	0000000000000000 addi_16
0000000000000184 l       .text	0000000000000000 addi_17
0000000000000198 l       .text	0000000000000000 addi_18
00000000000001c0 l       .text	0000000000000000 addi_19
00000000000001ec l       .text	0000000000000000 addi_20
000000000000021c l       .text	0000000000000000 addi_21
0000000000000240 l       .text	0000000000000000 addi_22
0000000000000268 l       .text	0000000000000000 addi_23
0000000000000294 l       .text	0000000000000000 addi_24
00000000000002a4 l       .text	0000000000000000 addi_25
00000000000002b8 l       .text	0000000000000000 pass
00000000000002c0 l       .text	0000000000000000 main_exit
000000000000fffc g       .text	0000000000000000 _sim_end
0000000000000020 g       .text	0000000000000000 main
0000000000009000 g       .text	0000000000000000 _answer
000000000000fff0 g       .text	0000000000000000 _stack


Contents of section .text:
 0000 17010100 130101ff ef008001 97020100  ................
 0010 938202ff 1303f0ff 23a06200 6f000000  ........#.b.o...
 0020 130e0400 938e0000 93012000 93060000  .......... .....
 0030 13870600 93030000 63127728 93013000  ........c.w(..0.
 0040 93061000 13871600 93032000 63187726  .......... .c.w&
 0050 93014000 93063000 13877600 9303a000  ..@...0...v.....
 0060 631e7724 93015000 93060000 13870680  c.w$..P.........
 0070 93030080 63147724 93016000 b7060080  ....c.w$..`.....
 0080 13870600 b7030080 631a7722 93017000  ........c.w"..p.
 0090 b7060080 13870680 9b03f0ff 9393f301  ................
 00a0 93830380 631c7720 93018000 93060000  ....c.w ........
 00b0 1387f67f 9303f07f 63127720 93019000  ........c.w ....
 00c0 b7060080 9b86f6ff 13870600 b7030080  ................
 00d0 9b83f3ff 6314771e 9301a000 b7060080  ....c.w.........
 00e0 9b86f6ff 1387f67f 9b031000 9393f301  ................
 00f0 9383e37f 6314771c 9301b000 b7060080  ....c.w.........
 0100 1387f67f b7030080 9b83f37f 6318771a  ............c.w.
 0110 9301c000 b7060080 9b86f6ff 13870680  ................
 0120 b7f3ff7f 9b83f37f 631a7718 9301d000  ........c.w.....
 0130 93060000 1387f6ff 9303f0ff 63107718  ............c.w.
 0140 9301e000 9306f0ff 13871600 93030000  ................
 0150 63167716 9301f000 9306f0ff 1387f6ff  c.w.............
 0160 9303e0ff 631c7714 93010001 b7060080  ....c.w.........
 0170 9b86f6ff 13871600 9b031000 9393f301  ................
 0180 631e7712 93011001 9305d000 9385b500  c.w.............
 0190 93038001 63947512 93012001 13020000  ....c.u... .....
 01a0 9300d000 1387b000 13030700 13021200  ................
 01b0 93022000 e31652fe 93038001 63107310  .. ...R.....c.s.
 01c0 93013001 13020000 9300d000 1387a000  ..0.............
 01d0 13000000 13030700 13021200 93022000  .............. .
 01e0 e31452fe 93037001 631a730c 93014001  ..R...p.c.s...@.
 01f0 13020000 9300d000 13879000 13000000  ................
 0200 13000000 13030700 13021200 93022000  .............. .
 0210 e31252fe 93036001 6312730a 93015001  ..R...`.c.s...P.
 0220 13020000 9300d000 1387b000 13021200  ................
 0230 93022000 e31852fe 93038001 63107708  .. ...R.....c.w.
 0240 93016001 13020000 9300d000 13000000  ..`.............
 0250 1387a000 13021200 93022000 e31652fe  .......... ...R.
 0260 93037001 631c7704 93017001 13020000  ..p.c.w...p.....
 0270 9300d000 13000000 13000000 13879000  ................
 0280 13021200 93022000 e31452fe 93036001  ...... ...R...`.
 0290 63167702 93018001 93000002 93030002  c.w.............
 02a0 639e7000 93019001 93001002 13802003  c.p........... .
 02b0 93030000 63147000 93010000 23203400  ....c.p.....# 4.
 02c0 93800e00 13040e00 67800000           ........g...    
Contents of section .riscv.attributes:
 0000 41190000 00726973 63760001 0f000000  A....riscv......
 0010 05727636 34693270 3100               .rv64i2p1.      

Disassembly of section .text:

0000000000000000 <_start>:
   0:	00010117          	auipc	sp,0x10
   4:	ff010113          	addi	sp,sp,-16 # fff0 <_stack>

0000000000000008 <SystemInit>:
   8:	018000ef          	jal	20 <main>

000000000000000c <SystemExit>:
   c:	00010297          	auipc	t0,0x10
  10:	ff028293          	addi	t0,t0,-16 # fffc <_sim_end>
  14:	fff00313          	li	t1,-1
  18:	0062a023          	sw	t1,0(t0)

000000000000001c <dead_loop>:
  1c:	0000006f          	j	1c <dead_loop>

0000000000000020 <main>:
  20:	00040e13          	mv	t3,s0
  24:	00008e93          	mv	t4,ra

0000000000000028 <addi_2>:
  28:	00200193          	li	gp,2
  2c:	00000693          	li	a3,0
  30:	00068713          	mv	a4,a3
  34:	00000393          	li	t2,0
  38:	28771263          	bne	a4,t2,2bc <failed>

000000000000003c <addi_3>:
  3c:	00300193          	li	gp,3
  40:	00100693          	li	a3,1
  44:	00168713          	addi	a4,a3,1
  48:	00200393          	li	t2,2
  4c:	26771863          	bne	a4,t2,2bc <failed>

0000000000000050 <addi_4>:
  50:	00400193          	li	gp,4
  54:	00300693          	li	a3,3
  58:	00768713          	addi	a4,a3,7
  5c:	00a00393          	li	t2,10
  60:	24771e63          	bne	a4,t2,2bc <failed>

0000000000000064 <addi_5>:
  64:	00500193          	li	gp,5
  68:	00000693          	li	a3,0
  6c:	80068713          	addi	a4,a3,-2048
  70:	80000393          	li	t2,-2048
  74:	24771463          	bne	a4,t2,2bc <failed>

0000000000000078 <addi_6>:
  78:	00600193          	li	gp,6
  7c:	800006b7          	lui	a3,0x80000
  80:	00068713          	mv	a4,a3
  84:	800003b7          	lui	t2,0x80000
  88:	22771a63          	bne	a4,t2,2bc <failed>

000000000000008c <addi_7>:
  8c:	00700193          	li	gp,7
  90:	800006b7          	lui	a3,0x80000
  94:	80068713          	addi	a4,a3,-2048 # ffffffff7ffff800 <_sim_end+0xffffffff7ffef804>
  98:	fff0039b          	addiw	t2,zero,-1
  9c:	01f39393          	slli	t2,t2,0x1f
  a0:	80038393          	addi	t2,t2,-2048 # ffffffff7ffff800 <_sim_end+0xffffffff7ffef804>
  a4:	20771c63          	bne	a4,t2,2bc <failed>

00000000000000a8 <addi_8>:
  a8:	00800193          	li	gp,8
  ac:	00000693          	li	a3,0
  b0:	7ff68713          	addi	a4,a3,2047
  b4:	7ff00393          	li	t2,2047
  b8:	20771263          	bne	a4,t2,2bc <failed>

00000000000000bc <addi_9>:
  bc:	00900193          	li	gp,9
  c0:	800006b7          	lui	a3,0x80000
  c4:	fff6869b          	addiw	a3,a3,-1 # 7fffffff <_sim_end+0x7fff0003>
  c8:	00068713          	mv	a4,a3
  cc:	800003b7          	lui	t2,0x80000
  d0:	fff3839b          	addiw	t2,t2,-1 # 7fffffff <_sim_end+0x7fff0003>
  d4:	1e771463          	bne	a4,t2,2bc <failed>

00000000000000d8 <addi_10>:
  d8:	00a00193          	li	gp,10
  dc:	800006b7          	lui	a3,0x80000
  e0:	fff6869b          	addiw	a3,a3,-1 # 7fffffff <_sim_end+0x7fff0003>
  e4:	7ff68713          	addi	a4,a3,2047
  e8:	0010039b          	addiw	t2,zero,1
  ec:	01f39393          	slli	t2,t2,0x1f
  f0:	7fe38393          	addi	t2,t2,2046
  f4:	1c771463          	bne	a4,t2,2bc <failed>

00000000000000f8 <addi_11>:
  f8:	00b00193          	li	gp,11
  fc:	800006b7          	lui	a3,0x80000
 100:	7ff68713          	addi	a4,a3,2047 # ffffffff800007ff <_sim_end+0xffffffff7fff0803>
 104:	800003b7          	lui	t2,0x80000
 108:	7ff3839b          	addiw	t2,t2,2047 # ffffffff800007ff <_sim_end+0xffffffff7fff0803>
 10c:	1a771863          	bne	a4,t2,2bc <failed>

0000000000000110 <addi_12>:
 110:	00c00193          	li	gp,12
 114:	800006b7          	lui	a3,0x80000
 118:	fff6869b          	addiw	a3,a3,-1 # 7fffffff <_sim_end+0x7fff0003>
 11c:	80068713          	addi	a4,a3,-2048
 120:	7ffff3b7          	lui	t2,0x7ffff
 124:	7ff3839b          	addiw	t2,t2,2047 # 7ffff7ff <_sim_end+0x7ffef803>
 128:	18771a63          	bne	a4,t2,2bc <failed>

000000000000012c <addi_13>:
 12c:	00d00193          	li	gp,13
 130:	00000693          	li	a3,0
 134:	fff68713          	addi	a4,a3,-1
 138:	fff00393          	li	t2,-1
 13c:	18771063          	bne	a4,t2,2bc <failed>

0000000000000140 <addi_14>:
 140:	00e00193          	li	gp,14
 144:	fff00693          	li	a3,-1
 148:	00168713          	addi	a4,a3,1
 14c:	00000393          	li	t2,0
 150:	16771663          	bne	a4,t2,2bc <failed>

0000000000000154 <addi_15>:
 154:	00f00193          	li	gp,15
 158:	fff00693          	li	a3,-1
 15c:	fff68713          	addi	a4,a3,-1
 160:	ffe00393          	li	t2,-2
 164:	14771c63          	bne	a4,t2,2bc <failed>

0000000000000168 <addi_16>:
 168:	01000193          	li	gp,16
 16c:	800006b7          	lui	a3,0x80000
 170:	fff6869b          	addiw	a3,a3,-1 # 7fffffff <_sim_end+0x7fff0003>
 174:	00168713          	addi	a4,a3,1
 178:	0010039b          	addiw	t2,zero,1
 17c:	01f39393          	slli	t2,t2,0x1f
 180:	12771e63          	bne	a4,t2,2bc <failed>

0000000000000184 <addi_17>:
 184:	01100193          	li	gp,17
 188:	00d00593          	li	a1,13
 18c:	00b58593          	addi	a1,a1,11
 190:	01800393          	li	t2,24
 194:	12759463          	bne	a1,t2,2bc <failed>

0000000000000198 <addi_18>:
 198:	01200193          	li	gp,18
 19c:	00000213          	li	tp,0
 1a0:	00d00093          	li	ra,13
 1a4:	00b08713          	addi	a4,ra,11
 1a8:	00070313          	mv	t1,a4
 1ac:	00120213          	addi	tp,tp,1 # 1 <_start+0x1>
 1b0:	00200293          	li	t0,2
 1b4:	fe5216e3          	bne	tp,t0,1a0 <addi_18+0x8>
 1b8:	01800393          	li	t2,24
 1bc:	10731063          	bne	t1,t2,2bc <failed>

00000000000001c0 <addi_19>:
 1c0:	01300193          	li	gp,19
 1c4:	00000213          	li	tp,0
 1c8:	00d00093          	li	ra,13
 1cc:	00a08713          	addi	a4,ra,10
 1d0:	00000013          	nop
 1d4:	00070313          	mv	t1,a4
 1d8:	00120213          	addi	tp,tp,1 # 1 <_start+0x1>
 1dc:	00200293          	li	t0,2
 1e0:	fe5214e3          	bne	tp,t0,1c8 <addi_19+0x8>
 1e4:	01700393          	li	t2,23
 1e8:	0c731a63          	bne	t1,t2,2bc <failed>

00000000000001ec <addi_20>:
 1ec:	01400193          	li	gp,20
 1f0:	00000213          	li	tp,0
 1f4:	00d00093          	li	ra,13
 1f8:	00908713          	addi	a4,ra,9
 1fc:	00000013          	nop
 200:	00000013          	nop
 204:	00070313          	mv	t1,a4
 208:	00120213          	addi	tp,tp,1 # 1 <_start+0x1>
 20c:	00200293          	li	t0,2
 210:	fe5212e3          	bne	tp,t0,1f4 <addi_20+0x8>
 214:	01600393          	li	t2,22
 218:	0a731263          	bne	t1,t2,2bc <failed>

000000000000021c <addi_21>:
 21c:	01500193          	li	gp,21
 220:	00000213          	li	tp,0
 224:	00d00093          	li	ra,13
 228:	00b08713          	addi	a4,ra,11
 22c:	00120213          	addi	tp,tp,1 # 1 <_start+0x1>
 230:	00200293          	li	t0,2
 234:	fe5218e3          	bne	tp,t0,224 <addi_21+0x8>
 238:	01800393          	li	t2,24
 23c:	08771063          	bne	a4,t2,2bc <failed>

0000000000000240 <addi_22>:
 240:	01600193          	li	gp,22
 244:	00000213          	li	tp,0
 248:	00d00093          	li	ra,13
 24c:	00000013          	nop
 250:	00a08713          	addi	a4,ra,10
 254:	00120213          	addi	tp,tp,1 # 1 <_start+0x1>
 258:	00200293          	li	t0,2
 25c:	fe5216e3          	bne	tp,t0,248 <addi_22+0x8>
 260:	01700393          	li	t2,23
 264:	04771c63          	bne	a4,t2,2bc <failed>

0000000000000268 <addi_23>:
 268:	01700193          	li	gp,23
 26c:	00000213          	li	tp,0
 270:	00d00093          	li	ra,13
 274:	00000013          	nop
 278:	00000013          	nop
 27c:	00908713          	addi	a4,ra,9
 280:	00120213          	addi	tp,tp,1 # 1 <_start+0x1>
 284:	00200293          	li	t0,2
 288:	fe5214e3          	bne	tp,t0,270 <addi_23+0x8>
 28c:	01600393          	li	t2,22
 290:	02771663          	bne	a4,t2,2bc <failed>

0000000000000294 <addi_24>:
 294:	01800193          	li	gp,24
 298:	02000093          	li	ra,32
 29c:	02000393          	li	t2,32
 2a0:	00709e63          	bne	ra,t2,2bc <failed>

00000000000002a4 <addi_25>:
 2a4:	01900193          	li	gp,25
 2a8:	02100093          	li	ra,33
 2ac:	03208013          	addi	zero,ra,50
 2b0:	00000393          	li	t2,0
 2b4:	00701463          	bne	zero,t2,2bc <failed>

00000000000002b8 <pass>:
 2b8:	00000193          	li	gp,0

00000000000002bc <failed>:
 2bc:	00342023          	sw	gp,0(s0)

00000000000002c0 <main_exit>:
 2c0:	000e8093          	mv	ra,t4
 2c4:	000e0413          	mv	s0,t3
 2c8:	00008067          	ret
