
./finish/blt.elf:     file format elf64-littleriscv
./finish/blt.elf
architecture: riscv:rv64, flags 0x00000112:
EXEC_P, HAS_SYMS, D_PAGED
start address 0x0000000000000000

Program Header:
0x70000003 off    0x00000000000012f8 vaddr 0x0000000000000000 paddr 0x0000000000000000 align 2**0
         filesz 0x000000000000001a memsz 0x0000000000000000 flags r--
    LOAD off    0x0000000000001000 vaddr 0x0000000000000000 paddr 0x0000000000000000 align 2**12
         filesz 0x00000000000002f8 memsz 0x00000000000002f8 flags r-x

Sections:
Idx Name          Size      VMA               LMA               File off  Algn
  0 .text         000002f8  0000000000000000  0000000000000000  00001000  2**2
                  CONTENTS, ALLOC, LOAD, READONLY, CODE
  1 .riscv.attributes 0000001a  0000000000000000  0000000000000000  000012f8  2**0
                  CONTENTS, READONLY
SYMBOL TABLE:
0000000000000000 l    d  .text	0000000000000000 .text
0000000000000000 l    d  .riscv.attributes	0000000000000000 .riscv.attributes
0000000000000000 l    df *ABS*	0000000000000000 setup.o
0000000000000000 l       .text	0000000000000000 _start
0000000000000000 l       .text	0000000000000000 init_stack
0000000000000008 l       .text	0000000000000000 SystemInit
000000000000000c l       .text	0000000000000000 SystemExit
000000000000001c l       .text	0000000000000000 dead_loop
0000000000000000 l    df *ABS*	0000000000000000 blt.o
0000000000000028 l       .text	0000000000000000 blt_2
00000000000002e8 l       .text	0000000000000000 failed
0000000000000048 l       .text	0000000000000000 blt_3
0000000000000068 l       .text	0000000000000000 blt_4
0000000000000088 l       .text	0000000000000000 blt_5
00000000000000a4 l       .text	0000000000000000 blt_6
00000000000000c0 l       .text	0000000000000000 blt_7
00000000000000dc l       .text	0000000000000000 blt_8
00000000000000f8 l       .text	0000000000000000 blt_9
0000000000000118 l       .text	0000000000000000 blt_10
000000000000013c l       .text	0000000000000000 blt_11
0000000000000164 l       .text	0000000000000000 blt_12
0000000000000188 l       .text	0000000000000000 blt_13
00000000000001b0 l       .text	0000000000000000 blt_14
00000000000001d8 l       .text	0000000000000000 blt_15
00000000000001f8 l       .text	0000000000000000 blt_16
000000000000021c l       .text	0000000000000000 blt_17
0000000000000244 l       .text	0000000000000000 blt_18
0000000000000268 l       .text	0000000000000000 blt_19
0000000000000290 l       .text	0000000000000000 blt_20
00000000000002b8 l       .text	0000000000000000 blt_21
00000000000002e4 l       .text	0000000000000000 pass
00000000000002ec l       .text	0000000000000000 main_exit
000000000000fffc g       .text	0000000000000000 _sim_end
0000000000000020 g       .text	0000000000000000 main
0000000000009000 g       .text	0000000000000000 _answer
000000000000fff0 g       .text	0000000000000000 _stack


Contents of section .text:
 0000 17010100 130101ff ef008001 97020100  ................
 0010 938202ff 1303f0ff 23a06200 6f000000  ........#.b.o...
 0020 130e0400 938e0000 93012000 93000000  .......... .....
 0030 13011000 63c62000 6318302a 63163000  ....c. .c.0*c.0.
 0040 e3ce20fe 6312302a 93013000 9300f0ff  .. .c.0*..0.....
 0050 13011000 63c62000 63183028 63163000  ....c. .c.0(c.0.
 0060 e3ce20fe 63123028 93014000 9300e0ff  .. .c.0(..@.....
 0070 1301f0ff 63c62000 63183026 63163000  ....c. .c.0&c.0.
 0080 e3ce20fe 63123026 93015000 93001000  .. .c.0&..P.....
 0090 13010000 63c42000 63143000 63163024  ....c. .c.0.c.0$
 00a0 e3ce20fe 93016000 93001000 1301f0ff  .. ...`.........
 00b0 63c42000 63143000 63183022 e3ce20fe  c. .c.0.c.0".. .
 00c0 93017000 9300f0ff 1301e0ff 63c42000  ..p.........c. .
 00d0 63143000 631a3020 e3ce20fe 93018000  c.0.c.0 .. .....
 00e0 93001000 1301e0ff 63c42000 63143000  ........c. .c.0.
 00f0 631c301e e3ce20fe 93019000 13020000  c.0... .........
 0100 93000000 1301f0ff 63c0201e 13021200  ........c. .....
 0110 93022000 e31652fe 9301a000 13020000  .. ...R.........
 0120 93000000 1301f0ff 13000000 63ce201a  ............c. .
 0130 13021200 93022000 e31452fe 9301b000  ...... ...R.....
 0140 13020000 93000000 1301f0ff 13000000  ................
 0150 13000000 63ca2018 13021200 93022000  ....c. ....... .
 0160 e31252fe 9301c000 13020000 93000000  ..R.............
 0170 13000000 1301f0ff 63c82016 13021200  ........c. .....
 0180 93022000 e31452fe 9301d000 13020000  .. ...R.........
 0190 93000000 13000000 1301f0ff 13000000  ................
 01a0 63c42014 13021200 93022000 e31252fe  c. ....... ...R.
 01b0 9301e000 13020000 93000000 13000000  ................
 01c0 13000000 1301f0ff 63c02012 13021200  ........c. .....
 01d0 93022000 e31252fe 9301f000 13020000  .. ...R.........
 01e0 93000000 1301f0ff 63c02010 13021200  ........c. .....
 01f0 93022000 e31652fe 93010001 13020000  .. ...R.........
 0200 93000000 1301f0ff 13000000 63ce200c  ............c. .
 0210 13021200 93022000 e31452fe 93011001  ...... ...R.....
 0220 13020000 93000000 1301f0ff 13000000  ................
 0230 13000000 63ca200a 13021200 93022000  ....c. ....... .
 0240 e31252fe 93012001 13020000 93000000  ..R... .........
 0250 13000000 1301f0ff 63c82008 13021200  ........c. .....
 0260 93022000 e31452fe 93013001 13020000  .. ...R...0.....
 0270 93000000 13000000 1301f0ff 13000000  ................
 0280 63c42006 13021200 93022000 e31252fe  c. ....... ...R.
 0290 93014001 13020000 93000000 13000000  ..@.............
 02a0 13000000 1301f0ff 63c02004 13021200  ........c. .....
 02b0 93022000 e31252fe 93015001 93001000  .. ...R...P.....
 02c0 634a1000 93801000 93801000 93801000  cJ..............
 02d0 93801000 93801000 93801000 93033000  ..............0.
 02e0 63947000 93010000 23203400 93800e00  c.p.....# 4.....
 02f0 13040e00 67800000                    ....g...        
Contents of section .riscv.attributes:
 0000 41190000 00726973 63760001 0f000000  A....riscv......
 0010 05727636 34693270 3100               .rv64i2p1.      

Disassembly of section .text:

0000000000000000 <_start>:
   0:	00010117          	auipc	sp,0x10
   4:	ff010113          	addi	sp,sp,-16 # fff0 <_stack>

0000000000000008 <SystemInit>:
   8:	018000ef          	jal	20 <main>

000000000000000c <SystemExit>:
   c:	00010297          	auipc	t0,0x10
  10:	ff028293          	addi	t0,t0,-16 # fffc <_sim_end>
  14:	fff00313          	li	t1,-1
  18:	0062a023          	sw	t1,0(t0)

000000000000001c <dead_loop>:
  1c:	0000006f          	j	1c <dead_loop>

0000000000000020 <main>:
  20:	00040e13          	mv	t3,s0
  24:	00008e93          	mv	t4,ra

0000000000000028 <blt_2>:
  28:	00200193          	li	gp,2
  2c:	00000093          	li	ra,0
  30:	00100113          	li	sp,1
  34:	0020c663          	blt	ra,sp,40 <blt_2+0x18>
  38:	2a301863          	bne	zero,gp,2e8 <failed>
  3c:	00301663          	bne	zero,gp,48 <blt_3>
  40:	fe20cee3          	blt	ra,sp,3c <blt_2+0x14>
  44:	2a301263          	bne	zero,gp,2e8 <failed>

0000000000000048 <blt_3>:
  48:	00300193          	li	gp,3
  4c:	fff00093          	li	ra,-1
  50:	00100113          	li	sp,1
  54:	0020c663          	blt	ra,sp,60 <blt_3+0x18>
  58:	28301863          	bne	zero,gp,2e8 <failed>
  5c:	00301663          	bne	zero,gp,68 <blt_4>
  60:	fe20cee3          	blt	ra,sp,5c <blt_3+0x14>
  64:	28301263          	bne	zero,gp,2e8 <failed>

0000000000000068 <blt_4>:
  68:	00400193          	li	gp,4
  6c:	ffe00093          	li	ra,-2
  70:	fff00113          	li	sp,-1
  74:	0020c663          	blt	ra,sp,80 <blt_4+0x18>
  78:	26301863          	bne	zero,gp,2e8 <failed>
  7c:	00301663          	bne	zero,gp,88 <blt_5>
  80:	fe20cee3          	blt	ra,sp,7c <blt_4+0x14>
  84:	26301263          	bne	zero,gp,2e8 <failed>

0000000000000088 <blt_5>:
  88:	00500193          	li	gp,5
  8c:	00100093          	li	ra,1
  90:	00000113          	li	sp,0
  94:	0020c463          	blt	ra,sp,9c <blt_5+0x14>
  98:	00301463          	bne	zero,gp,a0 <blt_5+0x18>
  9c:	24301663          	bne	zero,gp,2e8 <failed>
  a0:	fe20cee3          	blt	ra,sp,9c <blt_5+0x14>

00000000000000a4 <blt_6>:
  a4:	00600193          	li	gp,6
  a8:	00100093          	li	ra,1
  ac:	fff00113          	li	sp,-1
  b0:	0020c463          	blt	ra,sp,b8 <blt_6+0x14>
  b4:	00301463          	bne	zero,gp,bc <blt_6+0x18>
  b8:	22301863          	bne	zero,gp,2e8 <failed>
  bc:	fe20cee3          	blt	ra,sp,b8 <blt_6+0x14>

00000000000000c0 <blt_7>:
  c0:	00700193          	li	gp,7
  c4:	fff00093          	li	ra,-1
  c8:	ffe00113          	li	sp,-2
  cc:	0020c463          	blt	ra,sp,d4 <blt_7+0x14>
  d0:	00301463          	bne	zero,gp,d8 <blt_7+0x18>
  d4:	20301a63          	bne	zero,gp,2e8 <failed>
  d8:	fe20cee3          	blt	ra,sp,d4 <blt_7+0x14>

00000000000000dc <blt_8>:
  dc:	00800193          	li	gp,8
  e0:	00100093          	li	ra,1
  e4:	ffe00113          	li	sp,-2
  e8:	0020c463          	blt	ra,sp,f0 <blt_8+0x14>
  ec:	00301463          	bne	zero,gp,f4 <blt_8+0x18>
  f0:	1e301c63          	bne	zero,gp,2e8 <failed>
  f4:	fe20cee3          	blt	ra,sp,f0 <blt_8+0x14>

00000000000000f8 <blt_9>:
  f8:	00900193          	li	gp,9
  fc:	00000213          	li	tp,0
 100:	00000093          	li	ra,0
 104:	fff00113          	li	sp,-1
 108:	1e20c063          	blt	ra,sp,2e8 <failed>
 10c:	00120213          	addi	tp,tp,1 # 1 <_start+0x1>
 110:	00200293          	li	t0,2
 114:	fe5216e3          	bne	tp,t0,100 <blt_9+0x8>

0000000000000118 <blt_10>:
 118:	00a00193          	li	gp,10
 11c:	00000213          	li	tp,0
 120:	00000093          	li	ra,0
 124:	fff00113          	li	sp,-1
 128:	00000013          	nop
 12c:	1a20ce63          	blt	ra,sp,2e8 <failed>
 130:	00120213          	addi	tp,tp,1 # 1 <_start+0x1>
 134:	00200293          	li	t0,2
 138:	fe5214e3          	bne	tp,t0,120 <blt_10+0x8>

000000000000013c <blt_11>:
 13c:	00b00193          	li	gp,11
 140:	00000213          	li	tp,0
 144:	00000093          	li	ra,0
 148:	fff00113          	li	sp,-1
 14c:	00000013          	nop
 150:	00000013          	nop
 154:	1820ca63          	blt	ra,sp,2e8 <failed>
 158:	00120213          	addi	tp,tp,1 # 1 <_start+0x1>
 15c:	00200293          	li	t0,2
 160:	fe5212e3          	bne	tp,t0,144 <blt_11+0x8>

0000000000000164 <blt_12>:
 164:	00c00193          	li	gp,12
 168:	00000213          	li	tp,0
 16c:	00000093          	li	ra,0
 170:	00000013          	nop
 174:	fff00113          	li	sp,-1
 178:	1620c863          	blt	ra,sp,2e8 <failed>
 17c:	00120213          	addi	tp,tp,1 # 1 <_start+0x1>
 180:	00200293          	li	t0,2
 184:	fe5214e3          	bne	tp,t0,16c <blt_12+0x8>

0000000000000188 <blt_13>:
 188:	00d00193          	li	gp,13
 18c:	00000213          	li	tp,0
 190:	00000093          	li	ra,0
 194:	00000013          	nop
 198:	fff00113          	li	sp,-1
 19c:	00000013          	nop
 1a0:	1420c463          	blt	ra,sp,2e8 <failed>
 1a4:	00120213          	addi	tp,tp,1 # 1 <_start+0x1>
 1a8:	00200293          	li	t0,2
 1ac:	fe5212e3          	bne	tp,t0,190 <blt_13+0x8>

00000000000001b0 <blt_14>:
 1b0:	00e00193          	li	gp,14
 1b4:	00000213          	li	tp,0
 1b8:	00000093          	li	ra,0
 1bc:	00000013          	nop
 1c0:	00000013          	nop
 1c4:	fff00113          	li	sp,-1
 1c8:	1220c063          	blt	ra,sp,2e8 <failed>
 1cc:	00120213          	addi	tp,tp,1 # 1 <_start+0x1>
 1d0:	00200293          	li	t0,2
 1d4:	fe5212e3          	bne	tp,t0,1b8 <blt_14+0x8>

00000000000001d8 <blt_15>:
 1d8:	00f00193          	li	gp,15
 1dc:	00000213          	li	tp,0
 1e0:	00000093          	li	ra,0
 1e4:	fff00113          	li	sp,-1
 1e8:	1020c063          	blt	ra,sp,2e8 <failed>
 1ec:	00120213          	addi	tp,tp,1 # 1 <_start+0x1>
 1f0:	00200293          	li	t0,2
 1f4:	fe5216e3          	bne	tp,t0,1e0 <blt_15+0x8>

00000000000001f8 <blt_16>:
 1f8:	01000193          	li	gp,16
 1fc:	00000213          	li	tp,0
 200:	00000093          	li	ra,0
 204:	fff00113          	li	sp,-1
 208:	00000013          	nop
 20c:	0c20ce63          	blt	ra,sp,2e8 <failed>
 210:	00120213          	addi	tp,tp,1 # 1 <_start+0x1>
 214:	00200293          	li	t0,2
 218:	fe5214e3          	bne	tp,t0,200 <blt_16+0x8>

000000000000021c <blt_17>:
 21c:	01100193          	li	gp,17
 220:	00000213          	li	tp,0
 224:	00000093          	li	ra,0
 228:	fff00113          	li	sp,-1
 22c:	00000013          	nop
 230:	00000013          	nop
 234:	0a20ca63          	blt	ra,sp,2e8 <failed>
 238:	00120213          	addi	tp,tp,1 # 1 <_start+0x1>
 23c:	00200293          	li	t0,2
 240:	fe5212e3          	bne	tp,t0,224 <blt_17+0x8>

0000000000000244 <blt_18>:
 244:	01200193          	li	gp,18
 248:	00000213          	li	tp,0
 24c:	00000093          	li	ra,0
 250:	00000013          	nop
 254:	fff00113          	li	sp,-1
 258:	0820c863          	blt	ra,sp,2e8 <failed>
 25c:	00120213          	addi	tp,tp,1 # 1 <_start+0x1>
 260:	00200293          	li	t0,2
 264:	fe5214e3          	bne	tp,t0,24c <blt_18+0x8>

0000000000000268 <blt_19>:
 268:	01300193          	li	gp,19
 26c:	00000213          	li	tp,0
 270:	00000093          	li	ra,0
 274:	00000013          	nop
 278:	fff00113          	li	sp,-1
 27c:	00000013          	nop
 280:	0620c463          	blt	ra,sp,2e8 <failed>
 284:	00120213          	addi	tp,tp,1 # 1 <_start+0x1>
 288:	00200293          	li	t0,2
 28c:	fe5212e3          	bne	tp,t0,270 <blt_19+0x8>

0000000000000290 <blt_20>:
 290:	01400193          	li	gp,20
 294:	00000213          	li	tp,0
 298:	00000093          	li	ra,0
 29c:	00000013          	nop
 2a0:	00000013          	nop
 2a4:	fff00113          	li	sp,-1
 2a8:	0420c063          	blt	ra,sp,2e8 <failed>
 2ac:	00120213          	addi	tp,tp,1 # 1 <_start+0x1>
 2b0:	00200293          	li	t0,2
 2b4:	fe5212e3          	bne	tp,t0,298 <blt_20+0x8>

00000000000002b8 <blt_21>:
 2b8:	01500193          	li	gp,21
 2bc:	00100093          	li	ra,1
 2c0:	00104a63          	bgtz	ra,2d4 <blt_21+0x1c>
 2c4:	00108093          	addi	ra,ra,1
 2c8:	00108093          	addi	ra,ra,1
 2cc:	00108093          	addi	ra,ra,1
 2d0:	00108093          	addi	ra,ra,1
 2d4:	00108093          	addi	ra,ra,1
 2d8:	00108093          	addi	ra,ra,1
 2dc:	00300393          	li	t2,3
 2e0:	00709463          	bne	ra,t2,2e8 <failed>

00000000000002e4 <pass>:
 2e4:	00000193          	li	gp,0

00000000000002e8 <failed>:
 2e8:	00342023          	sw	gp,0(s0)

00000000000002ec <main_exit>:
 2ec:	000e8093          	mv	ra,t4
 2f0:	000e0413          	mv	s0,t3
 2f4:	00008067          	ret
