
./finish/jalr.elf:     file format elf64-littleriscv
./finish/jalr.elf
architecture: riscv:rv64, flags 0x00000112:
EXEC_P, HAS_SYMS, D_PAGED
start address 0x0000000000000000

Program Header:
0x70000003 off    0x0000000000001100 vaddr 0x0000000000000000 paddr 0x0000000000000000 align 2**0
         filesz 0x000000000000001a memsz 0x0000000000000000 flags r--
    LOAD off    0x0000000000001000 vaddr 0x0000000000000000 paddr 0x0000000000000000 align 2**12
         filesz 0x0000000000000100 memsz 0x0000000000000100 flags r-x

Sections:
Idx Name          Size      VMA               LMA               File off  Algn
  0 .text         00000100  0000000000000000  0000000000000000  00001000  2**2
                  CONTENTS, ALLOC, LOAD, READONLY, CODE
  1 .riscv.attributes 0000001a  0000000000000000  0000000000000000  00001100  2**0
                  CONTENTS, READONLY
SYMBOL TABLE:
0000000000000000 l    d  .text	0000000000000000 .text
0000000000000000 l    d  .riscv.attributes	0000000000000000 .riscv.attributes
0000000000000000 l    df *ABS*	0000000000000000 setup.o
0000000000000000 l       .text	0000000000000000 _start
0000000000000000 l       .text	0000000000000000 init_stack
0000000000000008 l       .text	0000000000000000 SystemInit
000000000000000c l       .text	0000000000000000 SystemExit
000000000000001c l       .text	0000000000000000 dead_loop
0000000000000000 l    df *ABS*	0000000000000000 jalr.o
0000000000000030 l       .text	0000000000000000 jalr_2
0000000000000048 l       .text	0000000000000000 target_2
0000000000000044 l       .text	0000000000000000 linkaddr_2
00000000000000f0 l       .text	0000000000000000 failed
0000000000000054 l       .text	0000000000000000 jalr_3
0000000000000068 l       .text	0000000000000000 target_3
0000000000000064 l       .text	0000000000000000 linkaddr_3
0000000000000074 l       .text	0000000000000000 jalr_4
0000000000000098 l       .text	0000000000000000 jalr_5
00000000000000c0 l       .text	0000000000000000 jalr_6
00000000000000ec l       .text	0000000000000000 pass
00000000000000f4 l       .text	0000000000000000 main_exit
000000000000fffc g       .text	0000000000000000 _sim_end
0000000000000020 g       .text	0000000000000000 main
0000000000009000 g       .text	0000000000000000 _answer
000000000000fff0 g       .text	0000000000000000 _stack


Contents of section .text:
 0000 17010100 130101ff ef008001 97020100  ................
 0010 938202ff 1303f0ff 23a06200 6f000000  ........#.b.o...
 0020 130181ff 23208100 17940000 130484fd  ....# ..........
 0030 93012000 93020000 17030000 13030301  .. .............
 0040 e7020300 6f00c00a 17030000 1303c3ff  ....o...........
 0050 6390620a 93013000 97020000 93820201  c.b...0.........
 0060 e7820200 6f00c008 17030000 1303c3ff  ....o...........
 0070 63906208 93014000 13020000 17030000  c.b...@.........
 0080 13030301 e7060300 63143006 13021200  ........c.0.....
 0090 93022000 e31452fe 93015000 13020000  .. ...R...P.....
 00a0 17030000 13034301 13000000 e7060300  ......C.........
 00b0 63103004 13021200 93022000 e31252fe  c.0....... ...R.
 00c0 93016000 13020000 17030000 13038301  ..`.............
 00d0 13000000 13000000 e7060300 631a3000  ............c.0.
 00e0 13021200 93022000 e31052fe 93010000  ...... ...R.....
 00f0 23203400 03240100 13018100 67800000  # 4..$......g...
Contents of section .riscv.attributes:
 0000 41190000 00726973 63760001 0f000000  A....riscv......
 0010 05727636 34693270 3100               .rv64i2p1.      

Disassembly of section .text:

0000000000000000 <_start>:
   0:	00010117          	auipc	sp,0x10
   4:	ff010113          	addi	sp,sp,-16 # fff0 <_stack>

0000000000000008 <SystemInit>:
   8:	018000ef          	jal	20 <main>

000000000000000c <SystemExit>:
   c:	00010297          	auipc	t0,0x10
  10:	ff028293          	addi	t0,t0,-16 # fffc <_sim_end>
  14:	fff00313          	li	t1,-1
  18:	0062a023          	sw	t1,0(t0)

000000000000001c <dead_loop>:
  1c:	0000006f          	j	1c <dead_loop>

0000000000000020 <main>:
  20:	ff810113          	addi	sp,sp,-8
  24:	00812023          	sw	s0,0(sp)
  28:	00009417          	auipc	s0,0x9
  2c:	fd840413          	addi	s0,s0,-40 # 9000 <_answer>

0000000000000030 <jalr_2>:
  30:	00200193          	li	gp,2
  34:	00000293          	li	t0,0
  38:	00000317          	auipc	t1,0x0
  3c:	01030313          	addi	t1,t1,16 # 48 <target_2>
  40:	000302e7          	jalr	t0,t1

0000000000000044 <linkaddr_2>:
  44:	0ac0006f          	j	f0 <failed>

0000000000000048 <target_2>:
  48:	00000317          	auipc	t1,0x0
  4c:	ffc30313          	addi	t1,t1,-4 # 44 <linkaddr_2>
  50:	0a629063          	bne	t0,t1,f0 <failed>

0000000000000054 <jalr_3>:
  54:	00300193          	li	gp,3
  58:	00000297          	auipc	t0,0x0
  5c:	01028293          	addi	t0,t0,16 # 68 <target_3>
  60:	000282e7          	jalr	t0,t0

0000000000000064 <linkaddr_3>:
  64:	08c0006f          	j	f0 <failed>

0000000000000068 <target_3>:
  68:	00000317          	auipc	t1,0x0
  6c:	ffc30313          	addi	t1,t1,-4 # 64 <linkaddr_3>
  70:	08629063          	bne	t0,t1,f0 <failed>

0000000000000074 <jalr_4>:
  74:	00400193          	li	gp,4
  78:	00000213          	li	tp,0
  7c:	00000317          	auipc	t1,0x0
  80:	01030313          	addi	t1,t1,16 # 8c <jalr_4+0x18>
  84:	000306e7          	jalr	a3,t1
  88:	06301463          	bne	zero,gp,f0 <failed>
  8c:	00120213          	addi	tp,tp,1 # 1 <_start+0x1>
  90:	00200293          	li	t0,2
  94:	fe5214e3          	bne	tp,t0,7c <jalr_4+0x8>

0000000000000098 <jalr_5>:
  98:	00500193          	li	gp,5
  9c:	00000213          	li	tp,0
  a0:	00000317          	auipc	t1,0x0
  a4:	01430313          	addi	t1,t1,20 # b4 <jalr_5+0x1c>
  a8:	00000013          	nop
  ac:	000306e7          	jalr	a3,t1
  b0:	04301063          	bne	zero,gp,f0 <failed>
  b4:	00120213          	addi	tp,tp,1 # 1 <_start+0x1>
  b8:	00200293          	li	t0,2
  bc:	fe5212e3          	bne	tp,t0,a0 <jalr_5+0x8>

00000000000000c0 <jalr_6>:
  c0:	00600193          	li	gp,6
  c4:	00000213          	li	tp,0
  c8:	00000317          	auipc	t1,0x0
  cc:	01830313          	addi	t1,t1,24 # e0 <jalr_6+0x20>
  d0:	00000013          	nop
  d4:	00000013          	nop
  d8:	000306e7          	jalr	a3,t1
  dc:	00301a63          	bne	zero,gp,f0 <failed>
  e0:	00120213          	addi	tp,tp,1 # 1 <_start+0x1>
  e4:	00200293          	li	t0,2
  e8:	fe5210e3          	bne	tp,t0,c8 <jalr_6+0x8>

00000000000000ec <pass>:
  ec:	00000193          	li	gp,0

00000000000000f0 <failed>:
  f0:	00342023          	sw	gp,0(s0)

00000000000000f4 <main_exit>:
  f4:	00012403          	lw	s0,0(sp)
  f8:	00810113          	addi	sp,sp,8
  fc:	00008067          	ret
