
./finish/lbu.elf:     file format elf64-littleriscv
./finish/lbu.elf
architecture: riscv:rv64, flags 0x00000112:
EXEC_P, HAS_SYMS, D_PAGED
start address 0x0000000000000000

Program Header:
0x70000003 off    0x0000000000002004 vaddr 0x0000000000000000 paddr 0x0000000000000000 align 2**0
         filesz 0x000000000000001a memsz 0x0000000000000000 flags r--
    LOAD off    0x0000000000001000 vaddr 0x0000000000000000 paddr 0x0000000000000000 align 2**12
         filesz 0x00000000000002ac memsz 0x00000000000002ac flags r-x
    LOAD off    0x0000000000002000 vaddr 0x0000000000008000 paddr 0x0000000000008000 align 2**12
         filesz 0x0000000000000004 memsz 0x0000000000000004 flags rw-

Sections:
Idx Name          Size      VMA               LMA               File off  Algn
  0 .text         000002ac  0000000000000000  0000000000000000  00001000  2**2
                  CONTENTS, ALLOC, LOAD, READONLY, CODE
  1 .data         00000004  0000000000008000  0000000000008000  00002000  2**0
                  CONTENTS, ALLOC, LOAD, DATA
  2 .riscv.attributes 0000001a  0000000000000000  0000000000000000  00002004  2**0
                  CONTENTS, READONLY
SYMBOL TABLE:
0000000000000000 l    d  .text	0000000000000000 .text
0000000000008000 l    d  .data	0000000000000000 .data
0000000000000000 l    d  .riscv.attributes	0000000000000000 .riscv.attributes
0000000000000000 l    df *ABS*	0000000000000000 setup.o
0000000000000000 l       .text	0000000000000000 _start
0000000000000000 l       .text	0000000000000000 init_stack
0000000000000008 l       .text	0000000000000000 SystemInit
000000000000000c l       .text	0000000000000000 SystemExit
000000000000001c l       .text	0000000000000000 dead_loop
0000000000000000 l    df *ABS*	0000000000000000 lbu.o
0000000000008000 l       .data	0000000000000000 tdat
0000000000008000 l       .data	0000000000000000 tdat1
0000000000008001 l       .data	0000000000000000 tdat2
0000000000008002 l       .data	0000000000000000 tdat3
0000000000008003 l       .data	0000000000000000 tdat4
0000000000000030 l       .text	0000000000000000 lbu_2
000000000000029c l       .text	0000000000000000 failed
000000000000004c l       .text	0000000000000000 lbu_3
0000000000000068 l       .text	0000000000000000 lbu_4
0000000000000084 l       .text	0000000000000000 lbu_5
00000000000000a0 l       .text	0000000000000000 lbu_6
00000000000000bc l       .text	0000000000000000 lbu_7
00000000000000d8 l       .text	0000000000000000 lbu_8
00000000000000f4 l       .text	0000000000000000 lbu_9
0000000000000110 l       .text	0000000000000000 lbu_10
000000000000012c l       .text	0000000000000000 lbu_11
0000000000000148 l       .text	0000000000000000 lbu_12
0000000000000174 l       .text	0000000000000000 lbu_13
00000000000001a4 l       .text	0000000000000000 lbu_14
00000000000001d8 l       .text	0000000000000000 lbu_15
0000000000000200 l       .text	0000000000000000 lbu_16
000000000000022c l       .text	0000000000000000 lbu_17
000000000000025c l       .text	0000000000000000 lbu_18
0000000000000278 l       .text	0000000000000000 lbu_19
0000000000000298 l       .text	0000000000000000 pass
00000000000002a0 l       .text	0000000000000000 main_exit
000000000000fffc g       .data	0000000000000000 _sim_end
0000000000000020 g       .text	0000000000000000 main
0000000000009000 g       .data	0000000000000000 _answer
000000000000fff0 g       .data	0000000000000000 _stack


Contents of section .text:
 0000 17010100 130101ff ef008001 97020100  ................
 0010 938202ff 1303f0ff 23a06200 6f000000  ........#.b.o...
 0020 130181ff 23208100 17940000 130484fd  ....# ..........
 0030 93012000 9307f00f 17810000 130181fc  .. .............
 0040 03470100 9303f00f 631a7724 93013000  .G......c.w$..0.
 0050 93070000 17810000 1301c1fa 03471100  .............G..
 0060 93030000 631c7722 93014000 9307000f  ....c.w"..@.....
 0070 17810000 130101f9 03472100 9303000f  .........G!.....
 0080 631e7720 93015000 9307f000 17810000  c.w ..P.........
 0090 130141f7 03473100 9303f000 63107720  ..A..G1.....c.w 
 00a0 93016000 9307f00f 17810000 1301b1f5  ..`.............
 00b0 0347d1ff 9303f00f 6312771e 93017000  .G......c.w...p.
 00c0 93070000 17810000 1301f1f3 0347e1ff  .............G..
 00d0 93030000 6314771c 93018000 9307000f  ....c.w.........
 00e0 17810000 130131f2 0347f1ff 9303000f  ......1..G......
 00f0 6316771a 93019000 9307f000 17810000  c.w.............
 0100 130171f0 03470100 9303f000 63187718  ..q..G......c.w.
 0110 9301a000 97800000 9380c0ee 938000fe  ................
 0120 83c20002 9303f00f 639a7216 9301b000  ........c.r.....
 0130 97800000 938000ed 9380a0ff 83c27000  ..............p.
 0140 93030000 639c7214 9301c000 13020000  ....c.r.........
 0150 97860000 938616eb 03c71600 13030700  ................
 0160 9303000f 631c7312 13021200 93022000  ....c.s....... .
 0170 e31052fe 9301d000 13020000 97860000  ..R.............
 0180 938666e8 03c71600 13000000 13030700  ..f.............
 0190 9303f000 63147310 13021200 93022000  ....c.s....... .
 01a0 e31e52fc 9301e000 13020000 97860000  ..R.............
 01b0 938646e5 03c71600 13000000 13000000  ..F.............
 01c0 13030700 93030000 631a730c 13021200  ........c.s.....
 01d0 93022000 e31c52fc 9301f000 13020000  .. ...R.........
 01e0 97860000 938616e2 03c71600 9303000f  ................
 01f0 6316770a 13021200 93022000 e31252fe  c.w....... ...R.
 0200 93010001 13020000 97860000 9386a6df  ................
 0210 13000000 03c71600 9303f000 63107708  ............c.w.
 0220 13021200 93022000 e31052fe 93011001  ...... ...R.....
 0230 13020000 97860000 9386c6dc 13000000  ................
 0240 13000000 03c71600 93030000 63187704  ............c.w.
 0250 13021200 93022000 e31e52fc 93012001  ...... ...R... .
 0260 97820000 938202da 03c10200 13012000  .............. .
 0270 93032000 63147102 93013001 97820000  .. .c.q...0.....
 0280 938242d8 03c10200 13000000 13012000  ..B........... .
 0290 93032000 63147100 93010000 23203400  .. .c.q.....# 4.
 02a0 03240100 13018100 67800000           .$......g...    
Contents of section .data:
 8000 ff00f00f                             ....            
Contents of section .riscv.attributes:
 0000 41190000 00726973 63760001 0f000000  A....riscv......
 0010 05727636 34693270 3100               .rv64i2p1.      

Disassembly of section .text:

0000000000000000 <_start>:
   0:	00010117          	auipc	sp,0x10
   4:	ff010113          	addi	sp,sp,-16 # fff0 <_stack>

0000000000000008 <SystemInit>:
   8:	018000ef          	jal	20 <main>

000000000000000c <SystemExit>:
   c:	00010297          	auipc	t0,0x10
  10:	ff028293          	addi	t0,t0,-16 # fffc <_sim_end>
  14:	fff00313          	li	t1,-1
  18:	0062a023          	sw	t1,0(t0)

000000000000001c <dead_loop>:
  1c:	0000006f          	j	1c <dead_loop>

0000000000000020 <main>:
  20:	ff810113          	addi	sp,sp,-8
  24:	00812023          	sw	s0,0(sp)
  28:	00009417          	auipc	s0,0x9
  2c:	fd840413          	addi	s0,s0,-40 # 9000 <_answer>

0000000000000030 <lbu_2>:
  30:	00200193          	li	gp,2
  34:	0ff00793          	li	a5,255
  38:	00008117          	auipc	sp,0x8
  3c:	fc810113          	addi	sp,sp,-56 # 8000 <tdat>
  40:	00014703          	lbu	a4,0(sp)
  44:	0ff00393          	li	t2,255
  48:	24771a63          	bne	a4,t2,29c <failed>

000000000000004c <lbu_3>:
  4c:	00300193          	li	gp,3
  50:	00000793          	li	a5,0
  54:	00008117          	auipc	sp,0x8
  58:	fac10113          	addi	sp,sp,-84 # 8000 <tdat>
  5c:	00114703          	lbu	a4,1(sp)
  60:	00000393          	li	t2,0
  64:	22771c63          	bne	a4,t2,29c <failed>

0000000000000068 <lbu_4>:
  68:	00400193          	li	gp,4
  6c:	0f000793          	li	a5,240
  70:	00008117          	auipc	sp,0x8
  74:	f9010113          	addi	sp,sp,-112 # 8000 <tdat>
  78:	00214703          	lbu	a4,2(sp)
  7c:	0f000393          	li	t2,240
  80:	20771e63          	bne	a4,t2,29c <failed>

0000000000000084 <lbu_5>:
  84:	00500193          	li	gp,5
  88:	00f00793          	li	a5,15
  8c:	00008117          	auipc	sp,0x8
  90:	f7410113          	addi	sp,sp,-140 # 8000 <tdat>
  94:	00314703          	lbu	a4,3(sp)
  98:	00f00393          	li	t2,15
  9c:	20771063          	bne	a4,t2,29c <failed>

00000000000000a0 <lbu_6>:
  a0:	00600193          	li	gp,6
  a4:	0ff00793          	li	a5,255
  a8:	00008117          	auipc	sp,0x8
  ac:	f5b10113          	addi	sp,sp,-165 # 8003 <tdat4>
  b0:	ffd14703          	lbu	a4,-3(sp)
  b4:	0ff00393          	li	t2,255
  b8:	1e771263          	bne	a4,t2,29c <failed>

00000000000000bc <lbu_7>:
  bc:	00700193          	li	gp,7
  c0:	00000793          	li	a5,0
  c4:	00008117          	auipc	sp,0x8
  c8:	f3f10113          	addi	sp,sp,-193 # 8003 <tdat4>
  cc:	ffe14703          	lbu	a4,-2(sp)
  d0:	00000393          	li	t2,0
  d4:	1c771463          	bne	a4,t2,29c <failed>

00000000000000d8 <lbu_8>:
  d8:	00800193          	li	gp,8
  dc:	0f000793          	li	a5,240
  e0:	00008117          	auipc	sp,0x8
  e4:	f2310113          	addi	sp,sp,-221 # 8003 <tdat4>
  e8:	fff14703          	lbu	a4,-1(sp)
  ec:	0f000393          	li	t2,240
  f0:	1a771663          	bne	a4,t2,29c <failed>

00000000000000f4 <lbu_9>:
  f4:	00900193          	li	gp,9
  f8:	00f00793          	li	a5,15
  fc:	00008117          	auipc	sp,0x8
 100:	f0710113          	addi	sp,sp,-249 # 8003 <tdat4>
 104:	00014703          	lbu	a4,0(sp)
 108:	00f00393          	li	t2,15
 10c:	18771863          	bne	a4,t2,29c <failed>

0000000000000110 <lbu_10>:
 110:	00a00193          	li	gp,10
 114:	00008097          	auipc	ra,0x8
 118:	eec08093          	addi	ra,ra,-276 # 8000 <tdat>
 11c:	fe008093          	addi	ra,ra,-32
 120:	0200c283          	lbu	t0,32(ra)
 124:	0ff00393          	li	t2,255
 128:	16729a63          	bne	t0,t2,29c <failed>

000000000000012c <lbu_11>:
 12c:	00b00193          	li	gp,11
 130:	00008097          	auipc	ra,0x8
 134:	ed008093          	addi	ra,ra,-304 # 8000 <tdat>
 138:	ffa08093          	addi	ra,ra,-6
 13c:	0070c283          	lbu	t0,7(ra)
 140:	00000393          	li	t2,0
 144:	14729c63          	bne	t0,t2,29c <failed>

0000000000000148 <lbu_12>:
 148:	00c00193          	li	gp,12
 14c:	00000213          	li	tp,0
 150:	00008697          	auipc	a3,0x8
 154:	eb168693          	addi	a3,a3,-335 # 8001 <tdat2>
 158:	0016c703          	lbu	a4,1(a3)
 15c:	00070313          	mv	t1,a4
 160:	0f000393          	li	t2,240
 164:	12731c63          	bne	t1,t2,29c <failed>
 168:	00120213          	addi	tp,tp,1 # 1 <_start+0x1>
 16c:	00200293          	li	t0,2
 170:	fe5210e3          	bne	tp,t0,150 <lbu_12+0x8>

0000000000000174 <lbu_13>:
 174:	00d00193          	li	gp,13
 178:	00000213          	li	tp,0
 17c:	00008697          	auipc	a3,0x8
 180:	e8668693          	addi	a3,a3,-378 # 8002 <tdat3>
 184:	0016c703          	lbu	a4,1(a3)
 188:	00000013          	nop
 18c:	00070313          	mv	t1,a4
 190:	00f00393          	li	t2,15
 194:	10731463          	bne	t1,t2,29c <failed>
 198:	00120213          	addi	tp,tp,1 # 1 <_start+0x1>
 19c:	00200293          	li	t0,2
 1a0:	fc521ee3          	bne	tp,t0,17c <lbu_13+0x8>

00000000000001a4 <lbu_14>:
 1a4:	00e00193          	li	gp,14
 1a8:	00000213          	li	tp,0
 1ac:	00008697          	auipc	a3,0x8
 1b0:	e5468693          	addi	a3,a3,-428 # 8000 <tdat>
 1b4:	0016c703          	lbu	a4,1(a3)
 1b8:	00000013          	nop
 1bc:	00000013          	nop
 1c0:	00070313          	mv	t1,a4
 1c4:	00000393          	li	t2,0
 1c8:	0c731a63          	bne	t1,t2,29c <failed>
 1cc:	00120213          	addi	tp,tp,1 # 1 <_start+0x1>
 1d0:	00200293          	li	t0,2
 1d4:	fc521ce3          	bne	tp,t0,1ac <lbu_14+0x8>

00000000000001d8 <lbu_15>:
 1d8:	00f00193          	li	gp,15
 1dc:	00000213          	li	tp,0
 1e0:	00008697          	auipc	a3,0x8
 1e4:	e2168693          	addi	a3,a3,-479 # 8001 <tdat2>
 1e8:	0016c703          	lbu	a4,1(a3)
 1ec:	0f000393          	li	t2,240
 1f0:	0a771663          	bne	a4,t2,29c <failed>
 1f4:	00120213          	addi	tp,tp,1 # 1 <_start+0x1>
 1f8:	00200293          	li	t0,2
 1fc:	fe5212e3          	bne	tp,t0,1e0 <lbu_15+0x8>

0000000000000200 <lbu_16>:
 200:	01000193          	li	gp,16
 204:	00000213          	li	tp,0
 208:	00008697          	auipc	a3,0x8
 20c:	dfa68693          	addi	a3,a3,-518 # 8002 <tdat3>
 210:	00000013          	nop
 214:	0016c703          	lbu	a4,1(a3)
 218:	00f00393          	li	t2,15
 21c:	08771063          	bne	a4,t2,29c <failed>
 220:	00120213          	addi	tp,tp,1 # 1 <_start+0x1>
 224:	00200293          	li	t0,2
 228:	fe5210e3          	bne	tp,t0,208 <lbu_16+0x8>

000000000000022c <lbu_17>:
 22c:	01100193          	li	gp,17
 230:	00000213          	li	tp,0
 234:	00008697          	auipc	a3,0x8
 238:	dcc68693          	addi	a3,a3,-564 # 8000 <tdat>
 23c:	00000013          	nop
 240:	00000013          	nop
 244:	0016c703          	lbu	a4,1(a3)
 248:	00000393          	li	t2,0
 24c:	04771863          	bne	a4,t2,29c <failed>
 250:	00120213          	addi	tp,tp,1 # 1 <_start+0x1>
 254:	00200293          	li	t0,2
 258:	fc521ee3          	bne	tp,t0,234 <lbu_17+0x8>

000000000000025c <lbu_18>:
 25c:	01200193          	li	gp,18
 260:	00008297          	auipc	t0,0x8
 264:	da028293          	addi	t0,t0,-608 # 8000 <tdat>
 268:	0002c103          	lbu	sp,0(t0)
 26c:	00200113          	li	sp,2
 270:	00200393          	li	t2,2
 274:	02711463          	bne	sp,t2,29c <failed>

0000000000000278 <lbu_19>:
 278:	01300193          	li	gp,19
 27c:	00008297          	auipc	t0,0x8
 280:	d8428293          	addi	t0,t0,-636 # 8000 <tdat>
 284:	0002c103          	lbu	sp,0(t0)
 288:	00000013          	nop
 28c:	00200113          	li	sp,2
 290:	00200393          	li	t2,2
 294:	00711463          	bne	sp,t2,29c <failed>

0000000000000298 <pass>:
 298:	00000193          	li	gp,0

000000000000029c <failed>:
 29c:	00342023          	sw	gp,0(s0)

00000000000002a0 <main_exit>:
 2a0:	00012403          	lw	s0,0(sp)
 2a4:	00810113          	addi	sp,sp,8
 2a8:	00008067          	ret
