
./finish/lh.elf:     file format elf64-littleriscv
./finish/lh.elf
architecture: riscv:rv64, flags 0x00000112:
EXEC_P, HAS_SYMS, D_PAGED
start address 0x0000000000000000

Program Header:
0x70000003 off    0x0000000000002008 vaddr 0x0000000000000000 paddr 0x0000000000000000 align 2**0
         filesz 0x000000000000001a memsz 0x0000000000000000 flags r--
    LOAD off    0x0000000000001000 vaddr 0x0000000000000000 paddr 0x0000000000000000 align 2**12
         filesz 0x0000000000000260 memsz 0x0000000000000260 flags r-x
    LOAD off    0x0000000000002000 vaddr 0x0000000000008000 paddr 0x0000000000008000 align 2**12
         filesz 0x0000000000000008 memsz 0x0000000000000008 flags rw-

Sections:
Idx Name          Size      VMA               LMA               File off  Algn
  0 .text         00000260  0000000000000000  0000000000000000  00001000  2**2
                  CONTENTS, ALLOC, LOAD, READONLY, CODE
  1 .data         00000008  0000000000008000  0000000000008000  00002000  2**0
                  CONTENTS, ALLOC, LOAD, DATA
  2 .riscv.attributes 0000001a  0000000000000000  0000000000000000  00002008  2**0
                  CONTENTS, READONLY
SYMBOL TABLE:
0000000000000000 l    d  .text	0000000000000000 .text
0000000000008000 l    d  .data	0000000000000000 .data
0000000000000000 l    d  .riscv.attributes	0000000000000000 .riscv.attributes
0000000000000000 l    df *ABS*	0000000000000000 setup.o
0000000000000000 l       .text	0000000000000000 _start
0000000000000000 l       .text	0000000000000000 init_stack
0000000000000008 l       .text	0000000000000000 SystemInit
000000000000000c l       .text	0000000000000000 SystemExit
000000000000001c l       .text	0000000000000000 dead_loop
0000000000000000 l    df *ABS*	0000000000000000 lh.o
0000000000008000 l       .data	0000000000000000 tdat
0000000000008000 l       .data	0000000000000000 tdat1
0000000000008002 l       .data	0000000000000000 tdat2
0000000000008004 l       .data	0000000000000000 tdat3
0000000000008006 l       .data	0000000000000000 tdat4
0000000000000028 l       .text	0000000000000000 lh_2
0000000000000250 l       .text	0000000000000000 failed
0000000000000044 l       .text	0000000000000000 lh_3
0000000000000060 l       .text	0000000000000000 lh_4
0000000000000084 l       .text	0000000000000000 lh_5
00000000000000a8 l       .text	0000000000000000 lh_6
00000000000000c4 l       .text	0000000000000000 lh_7
00000000000000e0 l       .text	0000000000000000 lh_8
0000000000000104 l       .text	0000000000000000 lh_9
0000000000000128 l       .text	0000000000000000 lh_12
0000000000000158 l       .text	0000000000000000 lh_13
000000000000018c l       .text	0000000000000000 lh_14
00000000000001c0 l       .text	0000000000000000 lh_15
00000000000001ec l       .text	0000000000000000 lh_16
000000000000021c l       .text	0000000000000000 lh_17
000000000000024c l       .text	0000000000000000 pass
0000000000000254 l       .text	0000000000000000 main_exit
000000000000fffc g       .data	0000000000000000 _sim_end
0000000000000020 g       .text	0000000000000000 main
0000000000009000 g       .data	0000000000000000 _answer
000000000000fff0 g       .data	0000000000000000 _stack


Contents of section .text:
 0000 17010100 130101ff ef008001 97020100  ................
 0010 938202ff 1303f0ff 23a06200 6f000000  ........#.b.o...
 0020 130e0400 938e0000 93012000 9307f00f  .......... .....
 0030 17810000 130101fd 03170100 9303f00f  ................
 0040 63187720 93013000 930700f0 17810000  c.w ..0.........
 0050 130141fb 03172100 930300f0 631a771e  ..A...!.....c.w.
 0060 93014000 b7170000 9b8707ff 17810000  ..@.............
 0070 130141f9 03174100 b7130000 9b8303ff  ..A...A.........
 0080 6318771c 93015000 b7f7ffff 9b87f700  c.w...P.........
 0090 17810000 130101f7 03176100 b7f3ffff  ..........a.....
 00a0 9b83f300 6316771a 93016000 9307f00f  ....c.w...`.....
 00b0 17810000 130161f5 0317a1ff 9303f00f  ......a.........
 00c0 63187718 93017000 930700f0 17810000  c.w...p.........
 00d0 1301a1f3 0317c1ff 930300f0 631a7716  ............c.w.
 00e0 93018000 b7170000 9b8707ff 17810000  ................
 00f0 1301a1f1 0317e1ff b7130000 9b8303ff  ................
 0100 63187714 93019000 b7f7ffff 9b87f700  c.w.............
 0110 17810000 130161ef 03170100 b7f3ffff  ......a.........
 0120 9b83f300 63167712 9301c000 13020000  ....c.w.........
 0130 97860000 938626ed 03972600 13030700  ......&...&.....
 0140 b7130000 9b8303ff 63147310 13021200  ........c.s.....
 0150 93022000 e31e52fc 9301d000 13020000  .. ...R.........
 0160 97860000 938646ea 03972600 13000000  ......F...&.....
 0170 13030700 b7f3ffff 9b83f300 631a730c  ............c.s.
 0180 13021200 93022000 e31c52fc 9301e000  ...... ...R.....
 0190 13020000 97860000 9386c6e6 03972600  ..............&.
 01a0 13000000 13000000 13030700 930300f0  ................
 01b0 6310730a 13021200 93022000 e31c52fc  c.s....... ...R.
 01c0 9301f000 13020000 97860000 9386a6e3  ................
 01d0 03972600 b7130000 9b8303ff 631a7706  ..&.........c.w.
 01e0 13021200 93022000 e31052fe 93010001  ...... ...R.....
 01f0 13020000 97860000 938606e1 13000000  ................
 0200 03972600 b7f3ffff 9b83f300 63127704  ..&.........c.w.
 0210 13021200 93022000 e31e52fc 93011001  ...... ...R.....
 0220 13020000 97860000 9386c6dd 13000000  ................
 0230 13000000 03972600 930300f0 631a7700  ......&.....c.w.
 0240 13021200 93022000 e31e52fc 93010000  ...... ...R.....
 0250 23203400 93800e00 13040e00 67800000  # 4.........g...
Contents of section .data:
 8000 ff0000ff f00f0ff0                    ........        
Contents of section .riscv.attributes:
 0000 41190000 00726973 63760001 0f000000  A....riscv......
 0010 05727636 34693270 3100               .rv64i2p1.      

Disassembly of section .text:

0000000000000000 <_start>:
   0:	00010117          	auipc	sp,0x10
   4:	ff010113          	addi	sp,sp,-16 # fff0 <_stack>

0000000000000008 <SystemInit>:
   8:	018000ef          	jal	20 <main>

000000000000000c <SystemExit>:
   c:	00010297          	auipc	t0,0x10
  10:	ff028293          	addi	t0,t0,-16 # fffc <_sim_end>
  14:	fff00313          	li	t1,-1
  18:	0062a023          	sw	t1,0(t0)

000000000000001c <dead_loop>:
  1c:	0000006f          	j	1c <dead_loop>

0000000000000020 <main>:
  20:	00040e13          	mv	t3,s0
  24:	00008e93          	mv	t4,ra

0000000000000028 <lh_2>:
  28:	00200193          	li	gp,2
  2c:	0ff00793          	li	a5,255
  30:	00008117          	auipc	sp,0x8
  34:	fd010113          	addi	sp,sp,-48 # 8000 <tdat>
  38:	00011703          	lh	a4,0(sp)
  3c:	0ff00393          	li	t2,255
  40:	20771863          	bne	a4,t2,250 <failed>

0000000000000044 <lh_3>:
  44:	00300193          	li	gp,3
  48:	f0000793          	li	a5,-256
  4c:	00008117          	auipc	sp,0x8
  50:	fb410113          	addi	sp,sp,-76 # 8000 <tdat>
  54:	00211703          	lh	a4,2(sp)
  58:	f0000393          	li	t2,-256
  5c:	1e771a63          	bne	a4,t2,250 <failed>

0000000000000060 <lh_4>:
  60:	00400193          	li	gp,4
  64:	000017b7          	lui	a5,0x1
  68:	ff07879b          	addiw	a5,a5,-16 # ff0 <main_exit+0xd9c>
  6c:	00008117          	auipc	sp,0x8
  70:	f9410113          	addi	sp,sp,-108 # 8000 <tdat>
  74:	00411703          	lh	a4,4(sp)
  78:	000013b7          	lui	t2,0x1
  7c:	ff03839b          	addiw	t2,t2,-16 # ff0 <main_exit+0xd9c>
  80:	1c771863          	bne	a4,t2,250 <failed>

0000000000000084 <lh_5>:
  84:	00500193          	li	gp,5
  88:	fffff7b7          	lui	a5,0xfffff
  8c:	00f7879b          	addiw	a5,a5,15 # fffffffffffff00f <_sim_end+0xfffffffffffef013>
  90:	00008117          	auipc	sp,0x8
  94:	f7010113          	addi	sp,sp,-144 # 8000 <tdat>
  98:	00611703          	lh	a4,6(sp)
  9c:	fffff3b7          	lui	t2,0xfffff
  a0:	00f3839b          	addiw	t2,t2,15 # fffffffffffff00f <_sim_end+0xfffffffffffef013>
  a4:	1a771663          	bne	a4,t2,250 <failed>

00000000000000a8 <lh_6>:
  a8:	00600193          	li	gp,6
  ac:	0ff00793          	li	a5,255
  b0:	00008117          	auipc	sp,0x8
  b4:	f5610113          	addi	sp,sp,-170 # 8006 <tdat4>
  b8:	ffa11703          	lh	a4,-6(sp)
  bc:	0ff00393          	li	t2,255
  c0:	18771863          	bne	a4,t2,250 <failed>

00000000000000c4 <lh_7>:
  c4:	00700193          	li	gp,7
  c8:	f0000793          	li	a5,-256
  cc:	00008117          	auipc	sp,0x8
  d0:	f3a10113          	addi	sp,sp,-198 # 8006 <tdat4>
  d4:	ffc11703          	lh	a4,-4(sp)
  d8:	f0000393          	li	t2,-256
  dc:	16771a63          	bne	a4,t2,250 <failed>

00000000000000e0 <lh_8>:
  e0:	00800193          	li	gp,8
  e4:	000017b7          	lui	a5,0x1
  e8:	ff07879b          	addiw	a5,a5,-16 # ff0 <main_exit+0xd9c>
  ec:	00008117          	auipc	sp,0x8
  f0:	f1a10113          	addi	sp,sp,-230 # 8006 <tdat4>
  f4:	ffe11703          	lh	a4,-2(sp)
  f8:	000013b7          	lui	t2,0x1
  fc:	ff03839b          	addiw	t2,t2,-16 # ff0 <main_exit+0xd9c>
 100:	14771863          	bne	a4,t2,250 <failed>

0000000000000104 <lh_9>:
 104:	00900193          	li	gp,9
 108:	fffff7b7          	lui	a5,0xfffff
 10c:	00f7879b          	addiw	a5,a5,15 # fffffffffffff00f <_sim_end+0xfffffffffffef013>
 110:	00008117          	auipc	sp,0x8
 114:	ef610113          	addi	sp,sp,-266 # 8006 <tdat4>
 118:	00011703          	lh	a4,0(sp)
 11c:	fffff3b7          	lui	t2,0xfffff
 120:	00f3839b          	addiw	t2,t2,15 # fffffffffffff00f <_sim_end+0xfffffffffffef013>
 124:	12771663          	bne	a4,t2,250 <failed>

0000000000000128 <lh_12>:
 128:	00c00193          	li	gp,12
 12c:	00000213          	li	tp,0
 130:	00008697          	auipc	a3,0x8
 134:	ed268693          	addi	a3,a3,-302 # 8002 <tdat2>
 138:	00269703          	lh	a4,2(a3)
 13c:	00070313          	mv	t1,a4
 140:	000013b7          	lui	t2,0x1
 144:	ff03839b          	addiw	t2,t2,-16 # ff0 <main_exit+0xd9c>
 148:	10731463          	bne	t1,t2,250 <failed>
 14c:	00120213          	addi	tp,tp,1 # 1 <_start+0x1>
 150:	00200293          	li	t0,2
 154:	fc521ee3          	bne	tp,t0,130 <lh_12+0x8>

0000000000000158 <lh_13>:
 158:	00d00193          	li	gp,13
 15c:	00000213          	li	tp,0
 160:	00008697          	auipc	a3,0x8
 164:	ea468693          	addi	a3,a3,-348 # 8004 <tdat3>
 168:	00269703          	lh	a4,2(a3)
 16c:	00000013          	nop
 170:	00070313          	mv	t1,a4
 174:	fffff3b7          	lui	t2,0xfffff
 178:	00f3839b          	addiw	t2,t2,15 # fffffffffffff00f <_sim_end+0xfffffffffffef013>
 17c:	0c731a63          	bne	t1,t2,250 <failed>
 180:	00120213          	addi	tp,tp,1 # 1 <_start+0x1>
 184:	00200293          	li	t0,2
 188:	fc521ce3          	bne	tp,t0,160 <lh_13+0x8>

000000000000018c <lh_14>:
 18c:	00e00193          	li	gp,14
 190:	00000213          	li	tp,0
 194:	00008697          	auipc	a3,0x8
 198:	e6c68693          	addi	a3,a3,-404 # 8000 <tdat>
 19c:	00269703          	lh	a4,2(a3)
 1a0:	00000013          	nop
 1a4:	00000013          	nop
 1a8:	00070313          	mv	t1,a4
 1ac:	f0000393          	li	t2,-256
 1b0:	0a731063          	bne	t1,t2,250 <failed>
 1b4:	00120213          	addi	tp,tp,1 # 1 <_start+0x1>
 1b8:	00200293          	li	t0,2
 1bc:	fc521ce3          	bne	tp,t0,194 <lh_14+0x8>

00000000000001c0 <lh_15>:
 1c0:	00f00193          	li	gp,15
 1c4:	00000213          	li	tp,0
 1c8:	00008697          	auipc	a3,0x8
 1cc:	e3a68693          	addi	a3,a3,-454 # 8002 <tdat2>
 1d0:	00269703          	lh	a4,2(a3)
 1d4:	000013b7          	lui	t2,0x1
 1d8:	ff03839b          	addiw	t2,t2,-16 # ff0 <main_exit+0xd9c>
 1dc:	06771a63          	bne	a4,t2,250 <failed>
 1e0:	00120213          	addi	tp,tp,1 # 1 <_start+0x1>
 1e4:	00200293          	li	t0,2
 1e8:	fe5210e3          	bne	tp,t0,1c8 <lh_15+0x8>

00000000000001ec <lh_16>:
 1ec:	01000193          	li	gp,16
 1f0:	00000213          	li	tp,0
 1f4:	00008697          	auipc	a3,0x8
 1f8:	e1068693          	addi	a3,a3,-496 # 8004 <tdat3>
 1fc:	00000013          	nop
 200:	00269703          	lh	a4,2(a3)
 204:	fffff3b7          	lui	t2,0xfffff
 208:	00f3839b          	addiw	t2,t2,15 # fffffffffffff00f <_sim_end+0xfffffffffffef013>
 20c:	04771263          	bne	a4,t2,250 <failed>
 210:	00120213          	addi	tp,tp,1 # 1 <_start+0x1>
 214:	00200293          	li	t0,2
 218:	fc521ee3          	bne	tp,t0,1f4 <lh_16+0x8>

000000000000021c <lh_17>:
 21c:	01100193          	li	gp,17
 220:	00000213          	li	tp,0
 224:	00008697          	auipc	a3,0x8
 228:	ddc68693          	addi	a3,a3,-548 # 8000 <tdat>
 22c:	00000013          	nop
 230:	00000013          	nop
 234:	00269703          	lh	a4,2(a3)
 238:	f0000393          	li	t2,-256
 23c:	00771a63          	bne	a4,t2,250 <failed>
 240:	00120213          	addi	tp,tp,1 # 1 <_start+0x1>
 244:	00200293          	li	t0,2
 248:	fc521ee3          	bne	tp,t0,224 <lh_17+0x8>

000000000000024c <pass>:
 24c:	00000193          	li	gp,0

0000000000000250 <failed>:
 250:	00342023          	sw	gp,0(s0)

0000000000000254 <main_exit>:
 254:	000e8093          	mv	ra,t4
 258:	000e0413          	mv	s0,t3
 25c:	00008067          	ret
