
./finish/lh.elf:     file format elf64-littleriscv
./finish/lh.elf
architecture: riscv:rv64, flags 0x00000112:
EXEC_P, HAS_SYMS, D_PAGED
start address 0x0000000000000000

Program Header:
0x70000003 off    0x0000000000002008 vaddr 0x0000000000000000 paddr 0x0000000000000000 align 2**0
         filesz 0x000000000000001a memsz 0x0000000000000000 flags r--
    LOAD off    0x0000000000001000 vaddr 0x0000000000000000 paddr 0x0000000000000000 align 2**12
         filesz 0x0000000000000268 memsz 0x0000000000000268 flags r-x
    LOAD off    0x0000000000002000 vaddr 0x0000000000008000 paddr 0x0000000000008000 align 2**12
         filesz 0x0000000000000008 memsz 0x0000000000000008 flags rw-

Sections:
Idx Name          Size      VMA               LMA               File off  Algn
  0 .text         00000268  0000000000000000  0000000000000000  00001000  2**2
                  CONTENTS, ALLOC, LOAD, READONLY, CODE
  1 .data         00000008  0000000000008000  0000000000008000  00002000  2**0
                  CONTENTS, ALLOC, LOAD, DATA
  2 .riscv.attributes 0000001a  0000000000000000  0000000000000000  00002008  2**0
                  CONTENTS, READONLY
SYMBOL TABLE:
0000000000000000 l    d  .text	0000000000000000 .text
0000000000008000 l    d  .data	0000000000000000 .data
0000000000000000 l    d  .riscv.attributes	0000000000000000 .riscv.attributes
0000000000000000 l    df *ABS*	0000000000000000 setup.o
0000000000000000 l       .text	0000000000000000 _start
0000000000000000 l       .text	0000000000000000 init_stack
0000000000000008 l       .text	0000000000000000 SystemInit
000000000000000c l       .text	0000000000000000 SystemExit
000000000000001c l       .text	0000000000000000 dead_loop
0000000000000000 l    df *ABS*	0000000000000000 lh.o
0000000000008000 l       .data	0000000000000000 tdat
0000000000008000 l       .data	0000000000000000 tdat1
0000000000008002 l       .data	0000000000000000 tdat2
0000000000008004 l       .data	0000000000000000 tdat3
0000000000008006 l       .data	0000000000000000 tdat4
0000000000000030 l       .text	0000000000000000 lh_2
0000000000000258 l       .text	0000000000000000 failed
000000000000004c l       .text	0000000000000000 lh_3
0000000000000068 l       .text	0000000000000000 lh_4
000000000000008c l       .text	0000000000000000 lh_5
00000000000000b0 l       .text	0000000000000000 lh_6
00000000000000cc l       .text	0000000000000000 lh_7
00000000000000e8 l       .text	0000000000000000 lh_8
000000000000010c l       .text	0000000000000000 lh_9
0000000000000130 l       .text	0000000000000000 lh_12
0000000000000160 l       .text	0000000000000000 lh_13
0000000000000194 l       .text	0000000000000000 lh_14
00000000000001c8 l       .text	0000000000000000 lh_15
00000000000001f4 l       .text	0000000000000000 lh_16
0000000000000224 l       .text	0000000000000000 lh_17
0000000000000254 l       .text	0000000000000000 pass
000000000000025c l       .text	0000000000000000 main_exit
000000000000fffc g       .data	0000000000000000 _sim_end
0000000000000020 g       .text	0000000000000000 main
0000000000009000 g       .data	0000000000000000 _answer
000000000000fff0 g       .data	0000000000000000 _stack


Contents of section .text:
 0000 17010100 130101ff ef008001 97020100  ................
 0010 938202ff 1303f0ff 23a06200 6f000000  ........#.b.o...
 0020 130181ff 23208100 17940000 130484fd  ....# ..........
 0030 93012000 9307f00f 17810000 130181fc  .. .............
 0040 03170100 9303f00f 63187720 93013000  ........c.w ..0.
 0050 930700f0 17810000 1301c1fa 03172100  ..............!.
 0060 930300f0 631a771e 93014000 b7170000  ....c.w...@.....
 0070 9b8707ff 17810000 1301c1f8 03174100  ..............A.
 0080 b7130000 9b8303ff 6318771c 93015000  ........c.w...P.
 0090 b7f7ffff 9b87f700 17810000 130181f6  ................
 00a0 03176100 b7f3ffff 9b83f300 6316771a  ..a.........c.w.
 00b0 93016000 9307f00f 17810000 1301e1f4  ..`.............
 00c0 0317a1ff 9303f00f 63187718 93017000  ........c.w...p.
 00d0 930700f0 17810000 130121f3 0317c1ff  ..........!.....
 00e0 930300f0 631a7716 93018000 b7170000  ....c.w.........
 00f0 9b8707ff 17810000 130121f1 0317e1ff  ..........!.....
 0100 b7130000 9b8303ff 63187714 93019000  ........c.w.....
 0110 b7f7ffff 9b87f700 17810000 1301e1ee  ................
 0120 03170100 b7f3ffff 9b83f300 63167712  ............c.w.
 0130 9301c000 13020000 97860000 9386a6ec  ................
 0140 03972600 13030700 b7130000 9b8303ff  ..&.............
 0150 63147310 13021200 93022000 e31e52fc  c.s....... ...R.
 0160 9301d000 13020000 97860000 9386c6e9  ................
 0170 03972600 13000000 13030700 b7f3ffff  ..&.............
 0180 9b83f300 631a730c 13021200 93022000  ....c.s....... .
 0190 e31c52fc 9301e000 13020000 97860000  ..R.............
 01a0 938646e6 03972600 13000000 13000000  ..F...&.........
 01b0 13030700 930300f0 6310730a 13021200  ........c.s.....
 01c0 93022000 e31c52fc 9301f000 13020000  .. ...R.........
 01d0 97860000 938626e3 03972600 b7130000  ......&...&.....
 01e0 9b8303ff 631a7706 13021200 93022000  ....c.w....... .
 01f0 e31052fe 93010001 13020000 97860000  ..R.............
 0200 938686e0 13000000 03972600 b7f3ffff  ..........&.....
 0210 9b83f300 63127704 13021200 93022000  ....c.w....... .
 0220 e31e52fc 93011001 13020000 97860000  ..R.............
 0230 938646dd 13000000 13000000 03972600  ..F...........&.
 0240 930300f0 631a7700 13021200 93022000  ....c.w....... .
 0250 e31e52fc 93010000 23203400 03240100  ..R.....# 4..$..
 0260 13018100 67800000                    ....g...        
Contents of section .data:
 8000 ff0000ff f00f0ff0                    ........        
Contents of section .riscv.attributes:
 0000 41190000 00726973 63760001 0f000000  A....riscv......
 0010 05727636 34693270 3100               .rv64i2p1.      

Disassembly of section .text:

0000000000000000 <_start>:
   0:	00010117          	auipc	sp,0x10
   4:	ff010113          	addi	sp,sp,-16 # fff0 <_stack>

0000000000000008 <SystemInit>:
   8:	018000ef          	jal	20 <main>

000000000000000c <SystemExit>:
   c:	00010297          	auipc	t0,0x10
  10:	ff028293          	addi	t0,t0,-16 # fffc <_sim_end>
  14:	fff00313          	li	t1,-1
  18:	0062a023          	sw	t1,0(t0)

000000000000001c <dead_loop>:
  1c:	0000006f          	j	1c <dead_loop>

0000000000000020 <main>:
  20:	ff810113          	addi	sp,sp,-8
  24:	00812023          	sw	s0,0(sp)
  28:	00009417          	auipc	s0,0x9
  2c:	fd840413          	addi	s0,s0,-40 # 9000 <_answer>

0000000000000030 <lh_2>:
  30:	00200193          	li	gp,2
  34:	0ff00793          	li	a5,255
  38:	00008117          	auipc	sp,0x8
  3c:	fc810113          	addi	sp,sp,-56 # 8000 <tdat>
  40:	00011703          	lh	a4,0(sp)
  44:	0ff00393          	li	t2,255
  48:	20771863          	bne	a4,t2,258 <failed>

000000000000004c <lh_3>:
  4c:	00300193          	li	gp,3
  50:	f0000793          	li	a5,-256
  54:	00008117          	auipc	sp,0x8
  58:	fac10113          	addi	sp,sp,-84 # 8000 <tdat>
  5c:	00211703          	lh	a4,2(sp)
  60:	f0000393          	li	t2,-256
  64:	1e771a63          	bne	a4,t2,258 <failed>

0000000000000068 <lh_4>:
  68:	00400193          	li	gp,4
  6c:	000017b7          	lui	a5,0x1
  70:	ff07879b          	addiw	a5,a5,-16 # ff0 <main_exit+0xd94>
  74:	00008117          	auipc	sp,0x8
  78:	f8c10113          	addi	sp,sp,-116 # 8000 <tdat>
  7c:	00411703          	lh	a4,4(sp)
  80:	000013b7          	lui	t2,0x1
  84:	ff03839b          	addiw	t2,t2,-16 # ff0 <main_exit+0xd94>
  88:	1c771863          	bne	a4,t2,258 <failed>

000000000000008c <lh_5>:
  8c:	00500193          	li	gp,5
  90:	fffff7b7          	lui	a5,0xfffff
  94:	00f7879b          	addiw	a5,a5,15 # fffffffffffff00f <_sim_end+0xfffffffffffef013>
  98:	00008117          	auipc	sp,0x8
  9c:	f6810113          	addi	sp,sp,-152 # 8000 <tdat>
  a0:	00611703          	lh	a4,6(sp)
  a4:	fffff3b7          	lui	t2,0xfffff
  a8:	00f3839b          	addiw	t2,t2,15 # fffffffffffff00f <_sim_end+0xfffffffffffef013>
  ac:	1a771663          	bne	a4,t2,258 <failed>

00000000000000b0 <lh_6>:
  b0:	00600193          	li	gp,6
  b4:	0ff00793          	li	a5,255
  b8:	00008117          	auipc	sp,0x8
  bc:	f4e10113          	addi	sp,sp,-178 # 8006 <tdat4>
  c0:	ffa11703          	lh	a4,-6(sp)
  c4:	0ff00393          	li	t2,255
  c8:	18771863          	bne	a4,t2,258 <failed>

00000000000000cc <lh_7>:
  cc:	00700193          	li	gp,7
  d0:	f0000793          	li	a5,-256
  d4:	00008117          	auipc	sp,0x8
  d8:	f3210113          	addi	sp,sp,-206 # 8006 <tdat4>
  dc:	ffc11703          	lh	a4,-4(sp)
  e0:	f0000393          	li	t2,-256
  e4:	16771a63          	bne	a4,t2,258 <failed>

00000000000000e8 <lh_8>:
  e8:	00800193          	li	gp,8
  ec:	000017b7          	lui	a5,0x1
  f0:	ff07879b          	addiw	a5,a5,-16 # ff0 <main_exit+0xd94>
  f4:	00008117          	auipc	sp,0x8
  f8:	f1210113          	addi	sp,sp,-238 # 8006 <tdat4>
  fc:	ffe11703          	lh	a4,-2(sp)
 100:	000013b7          	lui	t2,0x1
 104:	ff03839b          	addiw	t2,t2,-16 # ff0 <main_exit+0xd94>
 108:	14771863          	bne	a4,t2,258 <failed>

000000000000010c <lh_9>:
 10c:	00900193          	li	gp,9
 110:	fffff7b7          	lui	a5,0xfffff
 114:	00f7879b          	addiw	a5,a5,15 # fffffffffffff00f <_sim_end+0xfffffffffffef013>
 118:	00008117          	auipc	sp,0x8
 11c:	eee10113          	addi	sp,sp,-274 # 8006 <tdat4>
 120:	00011703          	lh	a4,0(sp)
 124:	fffff3b7          	lui	t2,0xfffff
 128:	00f3839b          	addiw	t2,t2,15 # fffffffffffff00f <_sim_end+0xfffffffffffef013>
 12c:	12771663          	bne	a4,t2,258 <failed>

0000000000000130 <lh_12>:
 130:	00c00193          	li	gp,12
 134:	00000213          	li	tp,0
 138:	00008697          	auipc	a3,0x8
 13c:	eca68693          	addi	a3,a3,-310 # 8002 <tdat2>
 140:	00269703          	lh	a4,2(a3)
 144:	00070313          	mv	t1,a4
 148:	000013b7          	lui	t2,0x1
 14c:	ff03839b          	addiw	t2,t2,-16 # ff0 <main_exit+0xd94>
 150:	10731463          	bne	t1,t2,258 <failed>
 154:	00120213          	addi	tp,tp,1 # 1 <_start+0x1>
 158:	00200293          	li	t0,2
 15c:	fc521ee3          	bne	tp,t0,138 <lh_12+0x8>

0000000000000160 <lh_13>:
 160:	00d00193          	li	gp,13
 164:	00000213          	li	tp,0
 168:	00008697          	auipc	a3,0x8
 16c:	e9c68693          	addi	a3,a3,-356 # 8004 <tdat3>
 170:	00269703          	lh	a4,2(a3)
 174:	00000013          	nop
 178:	00070313          	mv	t1,a4
 17c:	fffff3b7          	lui	t2,0xfffff
 180:	00f3839b          	addiw	t2,t2,15 # fffffffffffff00f <_sim_end+0xfffffffffffef013>
 184:	0c731a63          	bne	t1,t2,258 <failed>
 188:	00120213          	addi	tp,tp,1 # 1 <_start+0x1>
 18c:	00200293          	li	t0,2
 190:	fc521ce3          	bne	tp,t0,168 <lh_13+0x8>

0000000000000194 <lh_14>:
 194:	00e00193          	li	gp,14
 198:	00000213          	li	tp,0
 19c:	00008697          	auipc	a3,0x8
 1a0:	e6468693          	addi	a3,a3,-412 # 8000 <tdat>
 1a4:	00269703          	lh	a4,2(a3)
 1a8:	00000013          	nop
 1ac:	00000013          	nop
 1b0:	00070313          	mv	t1,a4
 1b4:	f0000393          	li	t2,-256
 1b8:	0a731063          	bne	t1,t2,258 <failed>
 1bc:	00120213          	addi	tp,tp,1 # 1 <_start+0x1>
 1c0:	00200293          	li	t0,2
 1c4:	fc521ce3          	bne	tp,t0,19c <lh_14+0x8>

00000000000001c8 <lh_15>:
 1c8:	00f00193          	li	gp,15
 1cc:	00000213          	li	tp,0
 1d0:	00008697          	auipc	a3,0x8
 1d4:	e3268693          	addi	a3,a3,-462 # 8002 <tdat2>
 1d8:	00269703          	lh	a4,2(a3)
 1dc:	000013b7          	lui	t2,0x1
 1e0:	ff03839b          	addiw	t2,t2,-16 # ff0 <main_exit+0xd94>
 1e4:	06771a63          	bne	a4,t2,258 <failed>
 1e8:	00120213          	addi	tp,tp,1 # 1 <_start+0x1>
 1ec:	00200293          	li	t0,2
 1f0:	fe5210e3          	bne	tp,t0,1d0 <lh_15+0x8>

00000000000001f4 <lh_16>:
 1f4:	01000193          	li	gp,16
 1f8:	00000213          	li	tp,0
 1fc:	00008697          	auipc	a3,0x8
 200:	e0868693          	addi	a3,a3,-504 # 8004 <tdat3>
 204:	00000013          	nop
 208:	00269703          	lh	a4,2(a3)
 20c:	fffff3b7          	lui	t2,0xfffff
 210:	00f3839b          	addiw	t2,t2,15 # fffffffffffff00f <_sim_end+0xfffffffffffef013>
 214:	04771263          	bne	a4,t2,258 <failed>
 218:	00120213          	addi	tp,tp,1 # 1 <_start+0x1>
 21c:	00200293          	li	t0,2
 220:	fc521ee3          	bne	tp,t0,1fc <lh_16+0x8>

0000000000000224 <lh_17>:
 224:	01100193          	li	gp,17
 228:	00000213          	li	tp,0
 22c:	00008697          	auipc	a3,0x8
 230:	dd468693          	addi	a3,a3,-556 # 8000 <tdat>
 234:	00000013          	nop
 238:	00000013          	nop
 23c:	00269703          	lh	a4,2(a3)
 240:	f0000393          	li	t2,-256
 244:	00771a63          	bne	a4,t2,258 <failed>
 248:	00120213          	addi	tp,tp,1 # 1 <_start+0x1>
 24c:	00200293          	li	t0,2
 250:	fc521ee3          	bne	tp,t0,22c <lh_17+0x8>

0000000000000254 <pass>:
 254:	00000193          	li	gp,0

0000000000000258 <failed>:
 258:	00342023          	sw	gp,0(s0)

000000000000025c <main_exit>:
 25c:	00012403          	lw	s0,0(sp)
 260:	00810113          	addi	sp,sp,8
 264:	00008067          	ret
