
./finish/lhu.elf:     file format elf64-littleriscv
./finish/lhu.elf
architecture: riscv:rv64, flags 0x00000112:
EXEC_P, HAS_SYMS, D_PAGED
start address 0x0000000000000000

Program Header:
0x70000003 off    0x0000000000002008 vaddr 0x0000000000000000 paddr 0x0000000000000000 align 2**0
         filesz 0x000000000000001a memsz 0x0000000000000000 flags r--
    LOAD off    0x0000000000001000 vaddr 0x0000000000000000 paddr 0x0000000000000000 align 2**12
         filesz 0x0000000000000280 memsz 0x0000000000000280 flags r-x
    LOAD off    0x0000000000002000 vaddr 0x0000000000008000 paddr 0x0000000000008000 align 2**12
         filesz 0x0000000000000008 memsz 0x0000000000000008 flags rw-

Sections:
Idx Name          Size      VMA               LMA               File off  Algn
  0 .text         00000280  0000000000000000  0000000000000000  00001000  2**2
                  CONTENTS, ALLOC, LOAD, READONLY, CODE
  1 .data         00000008  0000000000008000  0000000000008000  00002000  2**0
                  CONTENTS, ALLOC, LOAD, DATA
  2 .riscv.attributes 0000001a  0000000000000000  0000000000000000  00002008  2**0
                  CONTENTS, READONLY
SYMBOL TABLE:
0000000000000000 l    d  .text	0000000000000000 .text
0000000000008000 l    d  .data	0000000000000000 .data
0000000000000000 l    d  .riscv.attributes	0000000000000000 .riscv.attributes
0000000000000000 l    df *ABS*	0000000000000000 setup.o
0000000000000000 l       .text	0000000000000000 _start
0000000000000000 l       .text	0000000000000000 init_stack
0000000000000008 l       .text	0000000000000000 SystemInit
000000000000000c l       .text	0000000000000000 SystemExit
000000000000001c l       .text	0000000000000000 dead_loop
0000000000000000 l    df *ABS*	0000000000000000 lhu.o
0000000000008000 l       .data	0000000000000000 tdat
0000000000008000 l       .data	0000000000000000 tdat1
0000000000008002 l       .data	0000000000000000 tdat2
0000000000008004 l       .data	0000000000000000 tdat3
0000000000008006 l       .data	0000000000000000 tdat4
0000000000000030 l       .text	0000000000000000 lhu_2
0000000000000270 l       .text	0000000000000000 failed
000000000000004c l       .text	0000000000000000 lhu_3
0000000000000070 l       .text	0000000000000000 lhu_4
0000000000000094 l       .text	0000000000000000 lhu_5
00000000000000b8 l       .text	0000000000000000 lhu_6
00000000000000d4 l       .text	0000000000000000 lhu_7
00000000000000f8 l       .text	0000000000000000 lhu_8
000000000000011c l       .text	0000000000000000 lhu_9
0000000000000140 l       .text	0000000000000000 lhu_12
0000000000000170 l       .text	0000000000000000 lhu_13
00000000000001a4 l       .text	0000000000000000 lhu_14
00000000000001dc l       .text	0000000000000000 lhu_15
0000000000000208 l       .text	0000000000000000 lhu_16
0000000000000238 l       .text	0000000000000000 lhu_17
000000000000026c l       .text	0000000000000000 pass
0000000000000274 l       .text	0000000000000000 main_exit
000000000000fffc g       .data	0000000000000000 _sim_end
0000000000000020 g       .text	0000000000000000 main
0000000000009000 g       .data	0000000000000000 _answer
000000000000fff0 g       .data	0000000000000000 _stack


Contents of section .text:
 0000 17010100 130101ff ef008001 97020100  ................
 0010 938202ff 1303f0ff 23a06200 6f000000  ........#.b.o...
 0020 130181ff 23208100 17940000 130484fd  ....# ..........
 0030 93012000 9307f00f 17810000 130181fc  .. .............
 0040 03570100 9303f00f 63147722 93013000  .W......c.w"..0.
 0050 b7070100 9b8707f0 17810000 130181fa  ................
 0060 03572100 b7030100 9b8303f0 63127720  .W!.........c.w 
 0070 93014000 b7170000 9b8707ff 17810000  ..@.............
 0080 130141f8 03574100 b7130000 9b8303ff  ..A..WA.........
 0090 6310771e 93015000 b7f70000 9b87f700  c.w...P.........
 00a0 17810000 130101f6 03576100 b7f30000  .........Wa.....
 00b0 9b83f300 631e771a 93016000 9307f00f  ....c.w...`.....
 00c0 17810000 130161f4 0357a1ff 9303f00f  ......a..W......
 00d0 6310771a 93017000 b7070100 9b8707f0  c.w...p.........
 00e0 17810000 130161f2 0357c1ff b7030100  ......a..W......
 00f0 9b8303f0 631e7716 93018000 b7170000  ....c.w.........
 0100 9b8707ff 17810000 130121f0 0357e1ff  ..........!..W..
 0110 b7130000 9b8303ff 631c7714 93019000  ........c.w.....
 0120 b7f70000 9b87f700 17810000 1301e1ed  ................
 0130 03570100 b7f30000 9b83f300 631a7712  .W..........c.w.
 0140 9301c000 13020000 97860000 9386a6eb  ................
 0150 03d72600 13030700 b7130000 9b8303ff  ..&.............
 0160 63187310 13021200 93022000 e31e52fc  c.s....... ...R.
 0170 9301d000 13020000 97860000 9386c6e8  ................
 0180 03d72600 13000000 13030700 b7f30000  ..&.............
 0190 9b83f300 631e730c 13021200 93022000  ....c.s....... .
 01a0 e31c52fc 9301e000 13020000 97860000  ..R.............
 01b0 938646e5 03d72600 13000000 13000000  ..F...&.........
 01c0 13030700 b7030100 9b8303f0 6312730a  ............c.s.
 01d0 13021200 93022000 e31a52fc 9301f000  ...... ...R.....
 01e0 13020000 97860000 9386e6e1 03d72600  ..............&.
 01f0 b7130000 9b8303ff 631c7706 13021200  ........c.w.....
 0200 93022000 e31052fe 93010001 13020000  .. ...R.........
 0210 97860000 938646df 13000000 03d72600  ......F.......&.
 0220 b7f30000 9b83f300 63147704 13021200  ........c.w.....
 0230 93022000 e31e52fc 93011001 13020000  .. ...R.........
 0240 97860000 938606dc 13000000 13000000  ................
 0250 03d72600 b7030100 9b8303f0 631a7700  ..&.........c.w.
 0260 13021200 93022000 e31c52fc 93010000  ...... ...R.....
 0270 23203400 03240100 13018100 67800000  # 4..$......g...
Contents of section .data:
 8000 ff0000ff f00f0ff0                    ........        
Contents of section .riscv.attributes:
 0000 41190000 00726973 63760001 0f000000  A....riscv......
 0010 05727636 34693270 3100               .rv64i2p1.      

Disassembly of section .text:

0000000000000000 <_start>:
   0:	00010117          	auipc	sp,0x10
   4:	ff010113          	addi	sp,sp,-16 # fff0 <_stack>

0000000000000008 <SystemInit>:
   8:	018000ef          	jal	20 <main>

000000000000000c <SystemExit>:
   c:	00010297          	auipc	t0,0x10
  10:	ff028293          	addi	t0,t0,-16 # fffc <_sim_end>
  14:	fff00313          	li	t1,-1
  18:	0062a023          	sw	t1,0(t0)

000000000000001c <dead_loop>:
  1c:	0000006f          	j	1c <dead_loop>

0000000000000020 <main>:
  20:	ff810113          	addi	sp,sp,-8
  24:	00812023          	sw	s0,0(sp)
  28:	00009417          	auipc	s0,0x9
  2c:	fd840413          	addi	s0,s0,-40 # 9000 <_answer>

0000000000000030 <lhu_2>:
  30:	00200193          	li	gp,2
  34:	0ff00793          	li	a5,255
  38:	00008117          	auipc	sp,0x8
  3c:	fc810113          	addi	sp,sp,-56 # 8000 <tdat>
  40:	00015703          	lhu	a4,0(sp)
  44:	0ff00393          	li	t2,255
  48:	22771463          	bne	a4,t2,270 <failed>

000000000000004c <lhu_3>:
  4c:	00300193          	li	gp,3
  50:	000107b7          	lui	a5,0x10
  54:	f007879b          	addiw	a5,a5,-256 # ff00 <_answer+0x6f00>
  58:	00008117          	auipc	sp,0x8
  5c:	fa810113          	addi	sp,sp,-88 # 8000 <tdat>
  60:	00215703          	lhu	a4,2(sp)
  64:	000103b7          	lui	t2,0x10
  68:	f003839b          	addiw	t2,t2,-256 # ff00 <_answer+0x6f00>
  6c:	20771263          	bne	a4,t2,270 <failed>

0000000000000070 <lhu_4>:
  70:	00400193          	li	gp,4
  74:	000017b7          	lui	a5,0x1
  78:	ff07879b          	addiw	a5,a5,-16 # ff0 <main_exit+0xd7c>
  7c:	00008117          	auipc	sp,0x8
  80:	f8410113          	addi	sp,sp,-124 # 8000 <tdat>
  84:	00415703          	lhu	a4,4(sp)
  88:	000013b7          	lui	t2,0x1
  8c:	ff03839b          	addiw	t2,t2,-16 # ff0 <main_exit+0xd7c>
  90:	1e771063          	bne	a4,t2,270 <failed>

0000000000000094 <lhu_5>:
  94:	00500193          	li	gp,5
  98:	0000f7b7          	lui	a5,0xf
  9c:	00f7879b          	addiw	a5,a5,15 # f00f <_answer+0x600f>
  a0:	00008117          	auipc	sp,0x8
  a4:	f6010113          	addi	sp,sp,-160 # 8000 <tdat>
  a8:	00615703          	lhu	a4,6(sp)
  ac:	0000f3b7          	lui	t2,0xf
  b0:	00f3839b          	addiw	t2,t2,15 # f00f <_answer+0x600f>
  b4:	1a771e63          	bne	a4,t2,270 <failed>

00000000000000b8 <lhu_6>:
  b8:	00600193          	li	gp,6
  bc:	0ff00793          	li	a5,255
  c0:	00008117          	auipc	sp,0x8
  c4:	f4610113          	addi	sp,sp,-186 # 8006 <tdat4>
  c8:	ffa15703          	lhu	a4,-6(sp)
  cc:	0ff00393          	li	t2,255
  d0:	1a771063          	bne	a4,t2,270 <failed>

00000000000000d4 <lhu_7>:
  d4:	00700193          	li	gp,7
  d8:	000107b7          	lui	a5,0x10
  dc:	f007879b          	addiw	a5,a5,-256 # ff00 <_answer+0x6f00>
  e0:	00008117          	auipc	sp,0x8
  e4:	f2610113          	addi	sp,sp,-218 # 8006 <tdat4>
  e8:	ffc15703          	lhu	a4,-4(sp)
  ec:	000103b7          	lui	t2,0x10
  f0:	f003839b          	addiw	t2,t2,-256 # ff00 <_answer+0x6f00>
  f4:	16771e63          	bne	a4,t2,270 <failed>

00000000000000f8 <lhu_8>:
  f8:	00800193          	li	gp,8
  fc:	000017b7          	lui	a5,0x1
 100:	ff07879b          	addiw	a5,a5,-16 # ff0 <main_exit+0xd7c>
 104:	00008117          	auipc	sp,0x8
 108:	f0210113          	addi	sp,sp,-254 # 8006 <tdat4>
 10c:	ffe15703          	lhu	a4,-2(sp)
 110:	000013b7          	lui	t2,0x1
 114:	ff03839b          	addiw	t2,t2,-16 # ff0 <main_exit+0xd7c>
 118:	14771c63          	bne	a4,t2,270 <failed>

000000000000011c <lhu_9>:
 11c:	00900193          	li	gp,9
 120:	0000f7b7          	lui	a5,0xf
 124:	00f7879b          	addiw	a5,a5,15 # f00f <_answer+0x600f>
 128:	00008117          	auipc	sp,0x8
 12c:	ede10113          	addi	sp,sp,-290 # 8006 <tdat4>
 130:	00015703          	lhu	a4,0(sp)
 134:	0000f3b7          	lui	t2,0xf
 138:	00f3839b          	addiw	t2,t2,15 # f00f <_answer+0x600f>
 13c:	12771a63          	bne	a4,t2,270 <failed>

0000000000000140 <lhu_12>:
 140:	00c00193          	li	gp,12
 144:	00000213          	li	tp,0
 148:	00008697          	auipc	a3,0x8
 14c:	eba68693          	addi	a3,a3,-326 # 8002 <tdat2>
 150:	0026d703          	lhu	a4,2(a3)
 154:	00070313          	mv	t1,a4
 158:	000013b7          	lui	t2,0x1
 15c:	ff03839b          	addiw	t2,t2,-16 # ff0 <main_exit+0xd7c>
 160:	10731863          	bne	t1,t2,270 <failed>
 164:	00120213          	addi	tp,tp,1 # 1 <_start+0x1>
 168:	00200293          	li	t0,2
 16c:	fc521ee3          	bne	tp,t0,148 <lhu_12+0x8>

0000000000000170 <lhu_13>:
 170:	00d00193          	li	gp,13
 174:	00000213          	li	tp,0
 178:	00008697          	auipc	a3,0x8
 17c:	e8c68693          	addi	a3,a3,-372 # 8004 <tdat3>
 180:	0026d703          	lhu	a4,2(a3)
 184:	00000013          	nop
 188:	00070313          	mv	t1,a4
 18c:	0000f3b7          	lui	t2,0xf
 190:	00f3839b          	addiw	t2,t2,15 # f00f <_answer+0x600f>
 194:	0c731e63          	bne	t1,t2,270 <failed>
 198:	00120213          	addi	tp,tp,1 # 1 <_start+0x1>
 19c:	00200293          	li	t0,2
 1a0:	fc521ce3          	bne	tp,t0,178 <lhu_13+0x8>

00000000000001a4 <lhu_14>:
 1a4:	00e00193          	li	gp,14
 1a8:	00000213          	li	tp,0
 1ac:	00008697          	auipc	a3,0x8
 1b0:	e5468693          	addi	a3,a3,-428 # 8000 <tdat>
 1b4:	0026d703          	lhu	a4,2(a3)
 1b8:	00000013          	nop
 1bc:	00000013          	nop
 1c0:	00070313          	mv	t1,a4
 1c4:	000103b7          	lui	t2,0x10
 1c8:	f003839b          	addiw	t2,t2,-256 # ff00 <_answer+0x6f00>
 1cc:	0a731263          	bne	t1,t2,270 <failed>
 1d0:	00120213          	addi	tp,tp,1 # 1 <_start+0x1>
 1d4:	00200293          	li	t0,2
 1d8:	fc521ae3          	bne	tp,t0,1ac <lhu_14+0x8>

00000000000001dc <lhu_15>:
 1dc:	00f00193          	li	gp,15
 1e0:	00000213          	li	tp,0
 1e4:	00008697          	auipc	a3,0x8
 1e8:	e1e68693          	addi	a3,a3,-482 # 8002 <tdat2>
 1ec:	0026d703          	lhu	a4,2(a3)
 1f0:	000013b7          	lui	t2,0x1
 1f4:	ff03839b          	addiw	t2,t2,-16 # ff0 <main_exit+0xd7c>
 1f8:	06771c63          	bne	a4,t2,270 <failed>
 1fc:	00120213          	addi	tp,tp,1 # 1 <_start+0x1>
 200:	00200293          	li	t0,2
 204:	fe5210e3          	bne	tp,t0,1e4 <lhu_15+0x8>

0000000000000208 <lhu_16>:
 208:	01000193          	li	gp,16
 20c:	00000213          	li	tp,0
 210:	00008697          	auipc	a3,0x8
 214:	df468693          	addi	a3,a3,-524 # 8004 <tdat3>
 218:	00000013          	nop
 21c:	0026d703          	lhu	a4,2(a3)
 220:	0000f3b7          	lui	t2,0xf
 224:	00f3839b          	addiw	t2,t2,15 # f00f <_answer+0x600f>
 228:	04771463          	bne	a4,t2,270 <failed>
 22c:	00120213          	addi	tp,tp,1 # 1 <_start+0x1>
 230:	00200293          	li	t0,2
 234:	fc521ee3          	bne	tp,t0,210 <lhu_16+0x8>

0000000000000238 <lhu_17>:
 238:	01100193          	li	gp,17
 23c:	00000213          	li	tp,0
 240:	00008697          	auipc	a3,0x8
 244:	dc068693          	addi	a3,a3,-576 # 8000 <tdat>
 248:	00000013          	nop
 24c:	00000013          	nop
 250:	0026d703          	lhu	a4,2(a3)
 254:	000103b7          	lui	t2,0x10
 258:	f003839b          	addiw	t2,t2,-256 # ff00 <_answer+0x6f00>
 25c:	00771a63          	bne	a4,t2,270 <failed>
 260:	00120213          	addi	tp,tp,1 # 1 <_start+0x1>
 264:	00200293          	li	t0,2
 268:	fc521ce3          	bne	tp,t0,240 <lhu_17+0x8>

000000000000026c <pass>:
 26c:	00000193          	li	gp,0

0000000000000270 <failed>:
 270:	00342023          	sw	gp,0(s0)

0000000000000274 <main_exit>:
 274:	00012403          	lw	s0,0(sp)
 278:	00810113          	addi	sp,sp,8
 27c:	00008067          	ret
