
./finish/lui.elf:     file format elf64-littleriscv
./finish/lui.elf
architecture: riscv:rv64, flags 0x00000112:
EXEC_P, HAS_SYMS, D_PAGED
start address 0x0000000000000000

Program Header:
0x70000003 off    0x00000000000010a0 vaddr 0x0000000000000000 paddr 0x0000000000000000 align 2**0
         filesz 0x000000000000001a memsz 0x0000000000000000 flags r--
    LOAD off    0x0000000000001000 vaddr 0x0000000000000000 paddr 0x0000000000000000 align 2**12
         filesz 0x00000000000000a0 memsz 0x00000000000000a0 flags r-x

Sections:
Idx Name          Size      VMA               LMA               File off  Algn
  0 .text         000000a0  0000000000000000  0000000000000000  00001000  2**2
                  CONTENTS, ALLOC, LOAD, READONLY, CODE
  1 .riscv.attributes 0000001a  0000000000000000  0000000000000000  000010a0  2**0
                  CONTENTS, READONLY
SYMBOL TABLE:
0000000000000000 l    d  .text	0000000000000000 .text
0000000000000000 l    d  .riscv.attributes	0000000000000000 .riscv.attributes
0000000000000000 l    df *ABS*	0000000000000000 setup.o
0000000000000000 l       .text	0000000000000000 _start
0000000000000000 l       .text	0000000000000000 init_stack
0000000000000008 l       .text	0000000000000000 SystemInit
000000000000000c l       .text	0000000000000000 SystemExit
000000000000001c l       .text	0000000000000000 dead_loop
0000000000000000 l    df *ABS*	0000000000000000 lui.o
0000000000000030 l       .text	0000000000000000 lui_2
0000000000000090 l       .text	0000000000000000 failed
0000000000000040 l       .text	0000000000000000 lui_3
0000000000000054 l       .text	0000000000000000 lui_4
0000000000000068 l       .text	0000000000000000 lui_5
000000000000007c l       .text	0000000000000000 lui_6
000000000000008c l       .text	0000000000000000 pass
0000000000000094 l       .text	0000000000000000 main_exit
000000000000fffc g       .text	0000000000000000 _sim_end
0000000000000020 g       .text	0000000000000000 main
0000000000009000 g       .text	0000000000000000 _answer
000000000000fff0 g       .text	0000000000000000 _stack


Contents of section .text:
 0000 17010100 130101ff ef008001 97020100  ................
 0010 938202ff 1303f0ff 23a06200 6f000000  ........#.b.o...
 0020 130181ff 23208100 17940000 130484fd  ....# ..........
 0030 93012000 b7000000 93030000 639a7004  .. .........c.p.
 0040 93013000 b7f0ffff 93d01040 93030080  ..0........@....
 0050 63907004 93014000 b7f0ff7f 93d04041  c.p...@.......@A
 0060 9303f07f 63967002 93015000 b7000080  ....c.p...P.....
 0070 93d04041 93030080 639c7000 93016000  ..@A....c.p...`.
 0080 37000080 93030000 63147000 93010000  7.......c.p.....
 0090 23203400 03240100 13018100 67800000  # 4..$......g...
Contents of section .riscv.attributes:
 0000 41190000 00726973 63760001 0f000000  A....riscv......
 0010 05727636 34693270 3100               .rv64i2p1.      

Disassembly of section .text:

0000000000000000 <_start>:
   0:	00010117          	auipc	sp,0x10
   4:	ff010113          	addi	sp,sp,-16 # fff0 <_stack>

0000000000000008 <SystemInit>:
   8:	018000ef          	jal	20 <main>

000000000000000c <SystemExit>:
   c:	00010297          	auipc	t0,0x10
  10:	ff028293          	addi	t0,t0,-16 # fffc <_sim_end>
  14:	fff00313          	li	t1,-1
  18:	0062a023          	sw	t1,0(t0)

000000000000001c <dead_loop>:
  1c:	0000006f          	j	1c <dead_loop>

0000000000000020 <main>:
  20:	ff810113          	addi	sp,sp,-8
  24:	00812023          	sw	s0,0(sp)
  28:	00009417          	auipc	s0,0x9
  2c:	fd840413          	addi	s0,s0,-40 # 9000 <_answer>

0000000000000030 <lui_2>:
  30:	00200193          	li	gp,2
  34:	000000b7          	lui	ra,0x0
  38:	00000393          	li	t2,0
  3c:	04709a63          	bne	ra,t2,90 <failed>

0000000000000040 <lui_3>:
  40:	00300193          	li	gp,3
  44:	fffff0b7          	lui	ra,0xfffff
  48:	4010d093          	srai	ra,ra,0x1
  4c:	80000393          	li	t2,-2048
  50:	04709063          	bne	ra,t2,90 <failed>

0000000000000054 <lui_4>:
  54:	00400193          	li	gp,4
  58:	7ffff0b7          	lui	ra,0x7ffff
  5c:	4140d093          	srai	ra,ra,0x14
  60:	7ff00393          	li	t2,2047
  64:	02709663          	bne	ra,t2,90 <failed>

0000000000000068 <lui_5>:
  68:	00500193          	li	gp,5
  6c:	800000b7          	lui	ra,0x80000
  70:	4140d093          	srai	ra,ra,0x14
  74:	80000393          	li	t2,-2048
  78:	00709c63          	bne	ra,t2,90 <failed>

000000000000007c <lui_6>:
  7c:	00600193          	li	gp,6
  80:	80000037          	lui	zero,0x80000
  84:	00000393          	li	t2,0
  88:	00701463          	bne	zero,t2,90 <failed>

000000000000008c <pass>:
  8c:	00000193          	li	gp,0

0000000000000090 <failed>:
  90:	00342023          	sw	gp,0(s0)

0000000000000094 <main_exit>:
  94:	00012403          	lw	s0,0(sp)
  98:	00810113          	addi	sp,sp,8
  9c:	00008067          	ret
