
./finish/lwu.elf:     file format elf64-littleriscv
./finish/lwu.elf
architecture: riscv:rv64, flags 0x00000112:
EXEC_P, HAS_SYMS, D_PAGED
start address 0x0000000000000000

Program Header:
0x70000003 off    0x0000000000002010 vaddr 0x0000000000000000 paddr 0x0000000000000000 align 2**0
         filesz 0x000000000000001a memsz 0x0000000000000000 flags r--
    LOAD off    0x0000000000001000 vaddr 0x0000000000000000 paddr 0x0000000000000000 align 2**12
         filesz 0x00000000000002f0 memsz 0x00000000000002f0 flags r-x
    LOAD off    0x0000000000002000 vaddr 0x0000000000008000 paddr 0x0000000000008000 align 2**12
         filesz 0x0000000000000010 memsz 0x0000000000000010 flags rw-

Sections:
Idx Name          Size      VMA               LMA               File off  Algn
  0 .text         000002f0  0000000000000000  0000000000000000  00001000  2**2
                  CONTENTS, ALLOC, LOAD, READONLY, CODE
  1 .data         00000010  0000000000008000  0000000000008000  00002000  2**0
                  CONTENTS, ALLOC, LOAD, DATA
  2 .riscv.attributes 0000001a  0000000000000000  0000000000000000  00002010  2**0
                  CONTENTS, READONLY
SYMBOL TABLE:
0000000000000000 l    d  .text	0000000000000000 .text
0000000000008000 l    d  .data	0000000000000000 .data
0000000000000000 l    d  .riscv.attributes	0000000000000000 .riscv.attributes
0000000000000000 l    df *ABS*	0000000000000000 setup.o
0000000000000000 l       .text	0000000000000000 _start
0000000000000000 l       .text	0000000000000000 init_stack
0000000000000008 l       .text	0000000000000000 SystemInit
000000000000000c l       .text	0000000000000000 SystemExit
000000000000001c l       .text	0000000000000000 dead_loop
0000000000000000 l    df *ABS*	0000000000000000 lwu.o
0000000000008000 l       .data	0000000000000000 tdat
0000000000008000 l       .data	0000000000000000 tdat1
0000000000008004 l       .data	0000000000000000 tdat2
0000000000008008 l       .data	0000000000000000 tdat3
000000000000800c l       .data	0000000000000000 tdat4
0000000000000030 l       .text	0000000000000000 lwu_2
00000000000002e0 l       .text	0000000000000000 failed
0000000000000054 l       .text	0000000000000000 lwu_3
0000000000000088 l       .text	0000000000000000 lwu_4
00000000000000ac l       .text	0000000000000000 lwu_5
00000000000000e0 l       .text	0000000000000000 lwu_6
0000000000000104 l       .text	0000000000000000 lwu_7
0000000000000138 l       .text	0000000000000000 lwu_8
000000000000015c l       .text	0000000000000000 lwu_9
0000000000000190 l       .text	0000000000000000 lwu_12
00000000000001c0 l       .text	0000000000000000 lwu_13
00000000000001fc l       .text	0000000000000000 lwu_14
000000000000023c l       .text	0000000000000000 lwu_15
0000000000000268 l       .text	0000000000000000 lwu_16
00000000000002a0 l       .text	0000000000000000 lwu_17
00000000000002dc l       .text	0000000000000000 pass
00000000000002e4 l       .text	0000000000000000 main_exit
000000000000fffc g       .data	0000000000000000 _sim_end
0000000000000020 g       .text	0000000000000000 main
0000000000009000 g       .data	0000000000000000 _answer
000000000000fff0 g       .data	0000000000000000 _stack


Contents of section .text:
 0000 17010100 130101ff ef008001 97020100  ................
 0010 938202ff 1303f0ff 23a06200 6f000000  ........#.b.o...
 0020 130181ff 23208100 17940000 130484fd  ....# ..........
 0030 93012000 b707ff00 9b87f70f 17810000  .. .............
 0040 130141fc 03670100 b703ff00 9b83f30f  ..A..g..........
 0050 63187728 93013000 b7070100 9b8717f0  c.w(..0.........
 0060 93970701 938707f0 17810000 130181f9  ................
 0070 03674100 b7030100 9b8313f0 93930301  .gA.............
 0080 938303f0 631e7724 93014000 b717f00f  ....c.w$..@.....
 0090 9b8707ff 17810000 1301c1f6 03678100  .............g..
 00a0 b713f00f 9b8303ff 631c7722 93015000  ........c.w"..P.
 00b0 b7070f00 9b87f70f 9397c700 9387f700  ................
 00c0 17810000 130101f4 0367c100 b7030f00  .........g......
 00d0 9b83f30f 9393c300 9383f300 63127720  ............c.w 
 00e0 93016000 b707ff00 9b87f70f 17810000  ..`.............
 00f0 130101f2 036741ff b703ff00 9b83f30f  .....gA.........
 0100 6310771e 93017000 b7070100 9b8717f0  c.w...p.........
 0110 93970701 938707f0 17810000 130141ef  ..............A.
 0120 036781ff b7030100 9b8313f0 93930301  .g..............
 0130 938303f0 6316771a 93018000 b717f00f  ....c.w.........
 0140 9b8707ff 17810000 130181ec 0367c1ff  .............g..
 0150 b713f00f 9b8303ff 63147718 93019000  ........c.w.....
 0160 b7070f00 9b87f70f 9397c700 9387f700  ................
 0170 17810000 1301c1e9 03670100 b7030f00  .........g......
 0180 9b83f30f 9393c300 9383f300 631a7714  ............c.w.
 0190 9301c000 13020000 97860000 9386c6e6  ................
 01a0 03e74600 13030700 b713f00f 9b8303ff  ..F.............
 01b0 63187312 13021200 93022000 e31e52fc  c.s....... ...R.
 01c0 9301d000 13020000 97860000 938606e4  ................
 01d0 03e74600 13000000 13030700 b7030f00  ..F.............
 01e0 9b83f30f 9393c300 9383f300 631a730e  ............c.s.
 01f0 13021200 93022000 e31852fc 9301e000  ...... ...R.....
 0200 13020000 97860000 9386c6df 03e74600  ..............F.
 0210 13000000 13000000 13030700 b7030100  ................
 0220 9b8313f0 93930301 938303f0 631a730a  ............c.s.
 0230 13021200 93022000 e31652fc 9301f000  ...... ...R.....
 0240 13020000 97860000 938606dc 03e74600  ..............F.
 0250 b713f00f 9b8303ff 63147708 13021200  ........c.w.....
 0260 93022000 e31052fe 93010001 13020000  .. ...R.........
 0270 97860000 938686d9 13000000 03e74600  ..............F.
 0280 b7030f00 9b83f30f 9393c300 9383f300  ................
 0290 63187704 13021200 93022000 e31a52fc  c.w....... ...R.
 02a0 93011001 13020000 97860000 938686d5  ................
 02b0 13000000 13000000 03e74600 b7030100  ..........F.....
 02c0 9b8313f0 93930301 938303f0 631a7700  ............c.w.
 02d0 13021200 93022000 e31852fc 93010000  ...... ...R.....
 02e0 23203400 03240100 13018100 67800000  # 4..$......g...
Contents of section .data:
 8000 ff00ff00 00ff00ff f00ff00f 0ff00ff0  ................
Contents of section .riscv.attributes:
 0000 41190000 00726973 63760001 0f000000  A....riscv......
 0010 05727636 34693270 3100               .rv64i2p1.      

Disassembly of section .text:

0000000000000000 <_start>:
   0:	00010117          	auipc	sp,0x10
   4:	ff010113          	addi	sp,sp,-16 # fff0 <_stack>

0000000000000008 <SystemInit>:
   8:	018000ef          	jal	20 <main>

000000000000000c <SystemExit>:
   c:	00010297          	auipc	t0,0x10
  10:	ff028293          	addi	t0,t0,-16 # fffc <_sim_end>
  14:	fff00313          	li	t1,-1
  18:	0062a023          	sw	t1,0(t0)

000000000000001c <dead_loop>:
  1c:	0000006f          	j	1c <dead_loop>

0000000000000020 <main>:
  20:	ff810113          	addi	sp,sp,-8
  24:	00812023          	sw	s0,0(sp)
  28:	00009417          	auipc	s0,0x9
  2c:	fd840413          	addi	s0,s0,-40 # 9000 <_answer>

0000000000000030 <lwu_2>:
  30:	00200193          	li	gp,2
  34:	00ff07b7          	lui	a5,0xff0
  38:	0ff7879b          	addiw	a5,a5,255 # ff00ff <_sim_end+0xfe0103>
  3c:	00008117          	auipc	sp,0x8
  40:	fc410113          	addi	sp,sp,-60 # 8000 <tdat>
  44:	00016703          	lwu	a4,0(sp)
  48:	00ff03b7          	lui	t2,0xff0
  4c:	0ff3839b          	addiw	t2,t2,255 # ff00ff <_sim_end+0xfe0103>
  50:	28771863          	bne	a4,t2,2e0 <failed>

0000000000000054 <lwu_3>:
  54:	00300193          	li	gp,3
  58:	000107b7          	lui	a5,0x10
  5c:	f017879b          	addiw	a5,a5,-255 # ff01 <_answer+0x6f01>
  60:	01079793          	slli	a5,a5,0x10
  64:	f0078793          	addi	a5,a5,-256
  68:	00008117          	auipc	sp,0x8
  6c:	f9810113          	addi	sp,sp,-104 # 8000 <tdat>
  70:	00416703          	lwu	a4,4(sp)
  74:	000103b7          	lui	t2,0x10
  78:	f013839b          	addiw	t2,t2,-255 # ff01 <_answer+0x6f01>
  7c:	01039393          	slli	t2,t2,0x10
  80:	f0038393          	addi	t2,t2,-256
  84:	24771e63          	bne	a4,t2,2e0 <failed>

0000000000000088 <lwu_4>:
  88:	00400193          	li	gp,4
  8c:	0ff017b7          	lui	a5,0xff01
  90:	ff07879b          	addiw	a5,a5,-16 # ff00ff0 <_sim_end+0xfef0ff4>
  94:	00008117          	auipc	sp,0x8
  98:	f6c10113          	addi	sp,sp,-148 # 8000 <tdat>
  9c:	00816703          	lwu	a4,8(sp)
  a0:	0ff013b7          	lui	t2,0xff01
  a4:	ff03839b          	addiw	t2,t2,-16 # ff00ff0 <_sim_end+0xfef0ff4>
  a8:	22771c63          	bne	a4,t2,2e0 <failed>

00000000000000ac <lwu_5>:
  ac:	00500193          	li	gp,5
  b0:	000f07b7          	lui	a5,0xf0
  b4:	0ff7879b          	addiw	a5,a5,255 # f00ff <_sim_end+0xe0103>
  b8:	00c79793          	slli	a5,a5,0xc
  bc:	00f78793          	addi	a5,a5,15
  c0:	00008117          	auipc	sp,0x8
  c4:	f4010113          	addi	sp,sp,-192 # 8000 <tdat>
  c8:	00c16703          	lwu	a4,12(sp)
  cc:	000f03b7          	lui	t2,0xf0
  d0:	0ff3839b          	addiw	t2,t2,255 # f00ff <_sim_end+0xe0103>
  d4:	00c39393          	slli	t2,t2,0xc
  d8:	00f38393          	addi	t2,t2,15
  dc:	20771263          	bne	a4,t2,2e0 <failed>

00000000000000e0 <lwu_6>:
  e0:	00600193          	li	gp,6
  e4:	00ff07b7          	lui	a5,0xff0
  e8:	0ff7879b          	addiw	a5,a5,255 # ff00ff <_sim_end+0xfe0103>
  ec:	00008117          	auipc	sp,0x8
  f0:	f2010113          	addi	sp,sp,-224 # 800c <tdat4>
  f4:	ff416703          	lwu	a4,-12(sp)
  f8:	00ff03b7          	lui	t2,0xff0
  fc:	0ff3839b          	addiw	t2,t2,255 # ff00ff <_sim_end+0xfe0103>
 100:	1e771063          	bne	a4,t2,2e0 <failed>

0000000000000104 <lwu_7>:
 104:	00700193          	li	gp,7
 108:	000107b7          	lui	a5,0x10
 10c:	f017879b          	addiw	a5,a5,-255 # ff01 <_answer+0x6f01>
 110:	01079793          	slli	a5,a5,0x10
 114:	f0078793          	addi	a5,a5,-256
 118:	00008117          	auipc	sp,0x8
 11c:	ef410113          	addi	sp,sp,-268 # 800c <tdat4>
 120:	ff816703          	lwu	a4,-8(sp)
 124:	000103b7          	lui	t2,0x10
 128:	f013839b          	addiw	t2,t2,-255 # ff01 <_answer+0x6f01>
 12c:	01039393          	slli	t2,t2,0x10
 130:	f0038393          	addi	t2,t2,-256
 134:	1a771663          	bne	a4,t2,2e0 <failed>

0000000000000138 <lwu_8>:
 138:	00800193          	li	gp,8
 13c:	0ff017b7          	lui	a5,0xff01
 140:	ff07879b          	addiw	a5,a5,-16 # ff00ff0 <_sim_end+0xfef0ff4>
 144:	00008117          	auipc	sp,0x8
 148:	ec810113          	addi	sp,sp,-312 # 800c <tdat4>
 14c:	ffc16703          	lwu	a4,-4(sp)
 150:	0ff013b7          	lui	t2,0xff01
 154:	ff03839b          	addiw	t2,t2,-16 # ff00ff0 <_sim_end+0xfef0ff4>
 158:	18771463          	bne	a4,t2,2e0 <failed>

000000000000015c <lwu_9>:
 15c:	00900193          	li	gp,9
 160:	000f07b7          	lui	a5,0xf0
 164:	0ff7879b          	addiw	a5,a5,255 # f00ff <_sim_end+0xe0103>
 168:	00c79793          	slli	a5,a5,0xc
 16c:	00f78793          	addi	a5,a5,15
 170:	00008117          	auipc	sp,0x8
 174:	e9c10113          	addi	sp,sp,-356 # 800c <tdat4>
 178:	00016703          	lwu	a4,0(sp)
 17c:	000f03b7          	lui	t2,0xf0
 180:	0ff3839b          	addiw	t2,t2,255 # f00ff <_sim_end+0xe0103>
 184:	00c39393          	slli	t2,t2,0xc
 188:	00f38393          	addi	t2,t2,15
 18c:	14771a63          	bne	a4,t2,2e0 <failed>

0000000000000190 <lwu_12>:
 190:	00c00193          	li	gp,12
 194:	00000213          	li	tp,0
 198:	00008697          	auipc	a3,0x8
 19c:	e6c68693          	addi	a3,a3,-404 # 8004 <tdat2>
 1a0:	0046e703          	lwu	a4,4(a3)
 1a4:	00070313          	mv	t1,a4
 1a8:	0ff013b7          	lui	t2,0xff01
 1ac:	ff03839b          	addiw	t2,t2,-16 # ff00ff0 <_sim_end+0xfef0ff4>
 1b0:	12731863          	bne	t1,t2,2e0 <failed>
 1b4:	00120213          	addi	tp,tp,1 # 1 <_start+0x1>
 1b8:	00200293          	li	t0,2
 1bc:	fc521ee3          	bne	tp,t0,198 <lwu_12+0x8>

00000000000001c0 <lwu_13>:
 1c0:	00d00193          	li	gp,13
 1c4:	00000213          	li	tp,0
 1c8:	00008697          	auipc	a3,0x8
 1cc:	e4068693          	addi	a3,a3,-448 # 8008 <tdat3>
 1d0:	0046e703          	lwu	a4,4(a3)
 1d4:	00000013          	nop
 1d8:	00070313          	mv	t1,a4
 1dc:	000f03b7          	lui	t2,0xf0
 1e0:	0ff3839b          	addiw	t2,t2,255 # f00ff <_sim_end+0xe0103>
 1e4:	00c39393          	slli	t2,t2,0xc
 1e8:	00f38393          	addi	t2,t2,15
 1ec:	0e731a63          	bne	t1,t2,2e0 <failed>
 1f0:	00120213          	addi	tp,tp,1 # 1 <_start+0x1>
 1f4:	00200293          	li	t0,2
 1f8:	fc5218e3          	bne	tp,t0,1c8 <lwu_13+0x8>

00000000000001fc <lwu_14>:
 1fc:	00e00193          	li	gp,14
 200:	00000213          	li	tp,0
 204:	00008697          	auipc	a3,0x8
 208:	dfc68693          	addi	a3,a3,-516 # 8000 <tdat>
 20c:	0046e703          	lwu	a4,4(a3)
 210:	00000013          	nop
 214:	00000013          	nop
 218:	00070313          	mv	t1,a4
 21c:	000103b7          	lui	t2,0x10
 220:	f013839b          	addiw	t2,t2,-255 # ff01 <_answer+0x6f01>
 224:	01039393          	slli	t2,t2,0x10
 228:	f0038393          	addi	t2,t2,-256
 22c:	0a731a63          	bne	t1,t2,2e0 <failed>
 230:	00120213          	addi	tp,tp,1 # 1 <_start+0x1>
 234:	00200293          	li	t0,2
 238:	fc5216e3          	bne	tp,t0,204 <lwu_14+0x8>

000000000000023c <lwu_15>:
 23c:	00f00193          	li	gp,15
 240:	00000213          	li	tp,0
 244:	00008697          	auipc	a3,0x8
 248:	dc068693          	addi	a3,a3,-576 # 8004 <tdat2>
 24c:	0046e703          	lwu	a4,4(a3)
 250:	0ff013b7          	lui	t2,0xff01
 254:	ff03839b          	addiw	t2,t2,-16 # ff00ff0 <_sim_end+0xfef0ff4>
 258:	08771463          	bne	a4,t2,2e0 <failed>
 25c:	00120213          	addi	tp,tp,1 # 1 <_start+0x1>
 260:	00200293          	li	t0,2
 264:	fe5210e3          	bne	tp,t0,244 <lwu_15+0x8>

0000000000000268 <lwu_16>:
 268:	01000193          	li	gp,16
 26c:	00000213          	li	tp,0
 270:	00008697          	auipc	a3,0x8
 274:	d9868693          	addi	a3,a3,-616 # 8008 <tdat3>
 278:	00000013          	nop
 27c:	0046e703          	lwu	a4,4(a3)
 280:	000f03b7          	lui	t2,0xf0
 284:	0ff3839b          	addiw	t2,t2,255 # f00ff <_sim_end+0xe0103>
 288:	00c39393          	slli	t2,t2,0xc
 28c:	00f38393          	addi	t2,t2,15
 290:	04771863          	bne	a4,t2,2e0 <failed>
 294:	00120213          	addi	tp,tp,1 # 1 <_start+0x1>
 298:	00200293          	li	t0,2
 29c:	fc521ae3          	bne	tp,t0,270 <lwu_16+0x8>

00000000000002a0 <lwu_17>:
 2a0:	01100193          	li	gp,17
 2a4:	00000213          	li	tp,0
 2a8:	00008697          	auipc	a3,0x8
 2ac:	d5868693          	addi	a3,a3,-680 # 8000 <tdat>
 2b0:	00000013          	nop
 2b4:	00000013          	nop
 2b8:	0046e703          	lwu	a4,4(a3)
 2bc:	000103b7          	lui	t2,0x10
 2c0:	f013839b          	addiw	t2,t2,-255 # ff01 <_answer+0x6f01>
 2c4:	01039393          	slli	t2,t2,0x10
 2c8:	f0038393          	addi	t2,t2,-256
 2cc:	00771a63          	bne	a4,t2,2e0 <failed>
 2d0:	00120213          	addi	tp,tp,1 # 1 <_start+0x1>
 2d4:	00200293          	li	t0,2
 2d8:	fc5218e3          	bne	tp,t0,2a8 <lwu_17+0x8>

00000000000002dc <pass>:
 2dc:	00000193          	li	gp,0

00000000000002e0 <failed>:
 2e0:	00342023          	sw	gp,0(s0)

00000000000002e4 <main_exit>:
 2e4:	00012403          	lw	s0,0(sp)
 2e8:	00810113          	addi	sp,sp,8
 2ec:	00008067          	ret
