
./finish/slliw.elf:     file format elf64-littleriscv
./finish/slliw.elf
architecture: riscv:rv64, flags 0x00000112:
EXEC_P, HAS_SYMS, D_PAGED
start address 0x0000000000000000

Program Header:
0x70000003 off    0x000000000000134c vaddr 0x0000000000000000 paddr 0x0000000000000000 align 2**0
         filesz 0x000000000000001a memsz 0x0000000000000000 flags r--
    LOAD off    0x0000000000001000 vaddr 0x0000000000000000 paddr 0x0000000000000000 align 2**12
         filesz 0x000000000000034c memsz 0x000000000000034c flags r-x

Sections:
Idx Name          Size      VMA               LMA               File off  Algn
  0 .text         0000034c  0000000000000000  0000000000000000  00001000  2**2
                  CONTENTS, ALLOC, LOAD, READONLY, CODE
  1 .riscv.attributes 0000001a  0000000000000000  0000000000000000  0000134c  2**0
                  CONTENTS, READONLY
SYMBOL TABLE:
0000000000000000 l    d  .text	0000000000000000 .text
0000000000000000 l    d  .riscv.attributes	0000000000000000 .riscv.attributes
0000000000000000 l    df *ABS*	0000000000000000 setup.o
0000000000000000 l       .text	0000000000000000 _start
0000000000000000 l       .text	0000000000000000 init_stack
0000000000000008 l       .text	0000000000000000 SystemInit
000000000000000c l       .text	0000000000000000 SystemExit
000000000000001c l       .text	0000000000000000 dead_loop
0000000000000000 l    df *ABS*	0000000000000000 slliw.o
0000000000000028 l       .text	0000000000000000 slliw_2
000000000000033c l       .text	0000000000000000 failed
000000000000003c l       .text	0000000000000000 slliw_3
0000000000000050 l       .text	0000000000000000 slliw_4
0000000000000064 l       .text	0000000000000000 slliw_5
0000000000000078 l       .text	0000000000000000 slliw_6
000000000000008c l       .text	0000000000000000 slliw_7
00000000000000a0 l       .text	0000000000000000 slliw_8
00000000000000b4 l       .text	0000000000000000 slliw_9
00000000000000c8 l       .text	0000000000000000 slliw_10
00000000000000dc l       .text	0000000000000000 slliw_11
00000000000000f0 l       .text	0000000000000000 slliw_12
000000000000010c l       .text	0000000000000000 slliw_13
0000000000000128 l       .text	0000000000000000 slliw_14
0000000000000144 l       .text	0000000000000000 slliw_15
000000000000015c l       .text	0000000000000000 slliw_16
0000000000000174 l       .text	0000000000000000 slliw_44
0000000000000198 l       .text	0000000000000000 slliw_45
00000000000001bc l       .text	0000000000000000 slliw_46
00000000000001e0 l       .text	0000000000000000 slliw_47
0000000000000204 l       .text	0000000000000000 slliw_17
0000000000000218 l       .text	0000000000000000 slliw_18
0000000000000240 l       .text	0000000000000000 slliw_19
000000000000026c l       .text	0000000000000000 slliw_20
000000000000029c l       .text	0000000000000000 slliw_21
00000000000002c0 l       .text	0000000000000000 slliw_22
00000000000002e8 l       .text	0000000000000000 slliw_23
0000000000000314 l       .text	0000000000000000 slliw_24
0000000000000324 l       .text	0000000000000000 slliw_25
0000000000000338 l       .text	0000000000000000 pass
0000000000000340 l       .text	0000000000000000 main_exit
000000000000fffc g       .text	0000000000000000 _sim_end
0000000000000020 g       .text	0000000000000000 main
0000000000009000 g       .text	0000000000000000 _answer
000000000000fff0 g       .text	0000000000000000 _stack


Contents of section .text:
 0000 17010100 130101ff ef008001 97020100  ................
 0010 938202ff 1303f0ff 23a06200 6f000000  ........#.b.o...
 0020 130e0400 938e0000 93012000 93061000  .......... .....
 0030 1b970600 93031000 63127730 93013000  ........c.w0..0.
 0040 93061000 1b971600 93032000 6318772e  .......... .c.w.
 0050 93014000 93061000 1b977600 93030008  ..@.......v.....
 0060 631e772c 93015000 93061000 1b97e600  c.w,..P.........
 0070 b7430000 6314772c 93016000 93061000  .C..c.w,..`.....
 0080 1b97f601 b7030080 631a772a 93017000  ........c.w*..p.
 0090 9306f0ff 1b970600 9303f0ff 6310772a  ............c.w*
 00a0 93018000 9306f0ff 1b971600 9303e0ff  ................
 00b0 63167728 93019000 9306f0ff 1b977600  c.w(..........v.
 00c0 930300f8 631c7726 9301a000 9306f0ff  ....c.w&........
 00d0 1b97e600 b7c3ffff 63127726 9301b000  ........c.w&....
 00e0 9306f0ff 1b97f601 b7030080 63187724  ............c.w$
 00f0 9301c000 b7262121 9b861612 1b970600  .....&!!........
 0100 b7232121 9b831312 631a7722 9301d000  .#!!....c.w"....
 0110 b7262121 9b861612 1b971600 b7434242  .&!!.........CBB
 0120 9b832324 631c7720 9301e000 b7262121  ..#$c.w .....&!!
 0130 9b861612 1b977600 b7939090 9b830308  ......v.........
 0140 631e771e 9301f000 b7262121 9b861612  c.w......&!!....
 0150 1b97e600 b7434848 6312771e 93010001  .....CHHc.w.....
 0160 b7262121 9b861612 1b97f601 b7030080  .&!!............
 0170 6316771c 9301c002 b726f1ff 9b865634  c.w......&....V4
 0180 9396c600 93868667 1b970600 b7533412  .......g.....S4.
 0190 9b838367 6314771a 9301d002 b726f1ff  ...gc.w......&..
 01a0 9b865634 9396c600 93868667 1b974600  ..V4.......g..F.
 01b0 b7634523 9b830378 63127718 9301e002  .cE#...xc.w.....
 01c0 b7260900 9b865634 9396c600 93868667  .&....V4.......g
 01d0 1b970600 b7533492 9b838367 63107716  .....S4....gc.w.
 01e0 9301f002 b7960900 9b865634 9396c600  ..........V4....
 01f0 93868667 1b974600 b7634593 9b830378  ...g..F..cE....x
 0200 631e7712 93011001 93051000 9b957500  c.w...........u.
 0210 93030008 63947512 93012001 13020000  ....c.u... .....
 0220 93001000 1b977000 13030700 13021200  ......p.........
 0230 93022000 e31652fe 93030008 63107310  .. ...R.....c.s.
 0240 93013001 13020000 93001000 1b97e000  ..0.............
 0250 13000000 13030700 13021200 93022000  .............. .
 0260 e31452fe b7430000 631a730c 93014001  ..R..C..c.s...@.
 0270 13020000 93001000 1b97f001 13000000  ................
 0280 13000000 13030700 13021200 93022000  .............. .
 0290 e31252fe b7030080 6312730a 93015001  ..R.....c.s...P.
 02a0 13020000 93001000 1b977000 13021200  ..........p.....
 02b0 93022000 e31852fe 93030008 63107708  .. ...R.....c.w.
 02c0 93016001 13020000 93001000 13000000  ..`.............
 02d0 1b97e000 13021200 93022000 e31652fe  .......... ...R.
 02e0 b7430000 631c7704 93017001 13020000  .C..c.w...p.....
 02f0 93001000 13000000 13000000 1b97f001  ................
 0300 13021200 93022000 e31452fe b7030080  ...... ...R.....
 0310 63167702 93018001 9b10f001 93030000  c.w.............
 0320 639e7000 93019001 9300f001 1b90c001  c.p.............
 0330 93030000 63147000 93010000 23203400  ....c.p.....# 4.
 0340 93800e00 13040e00 67800000           ........g...    
Contents of section .riscv.attributes:
 0000 41190000 00726973 63760001 0f000000  A....riscv......
 0010 05727636 34693270 3100               .rv64i2p1.      

Disassembly of section .text:

0000000000000000 <_start>:
   0:	00010117          	auipc	sp,0x10
   4:	ff010113          	addi	sp,sp,-16 # fff0 <_stack>

0000000000000008 <SystemInit>:
   8:	018000ef          	jal	20 <main>

000000000000000c <SystemExit>:
   c:	00010297          	auipc	t0,0x10
  10:	ff028293          	addi	t0,t0,-16 # fffc <_sim_end>
  14:	fff00313          	li	t1,-1
  18:	0062a023          	sw	t1,0(t0)

000000000000001c <dead_loop>:
  1c:	0000006f          	j	1c <dead_loop>

0000000000000020 <main>:
  20:	00040e13          	mv	t3,s0
  24:	00008e93          	mv	t4,ra

0000000000000028 <slliw_2>:
  28:	00200193          	li	gp,2
  2c:	00100693          	li	a3,1
  30:	0006971b          	slliw	a4,a3,0x0
  34:	00100393          	li	t2,1
  38:	30771263          	bne	a4,t2,33c <failed>

000000000000003c <slliw_3>:
  3c:	00300193          	li	gp,3
  40:	00100693          	li	a3,1
  44:	0016971b          	slliw	a4,a3,0x1
  48:	00200393          	li	t2,2
  4c:	2e771863          	bne	a4,t2,33c <failed>

0000000000000050 <slliw_4>:
  50:	00400193          	li	gp,4
  54:	00100693          	li	a3,1
  58:	0076971b          	slliw	a4,a3,0x7
  5c:	08000393          	li	t2,128
  60:	2c771e63          	bne	a4,t2,33c <failed>

0000000000000064 <slliw_5>:
  64:	00500193          	li	gp,5
  68:	00100693          	li	a3,1
  6c:	00e6971b          	slliw	a4,a3,0xe
  70:	000043b7          	lui	t2,0x4
  74:	2c771463          	bne	a4,t2,33c <failed>

0000000000000078 <slliw_6>:
  78:	00600193          	li	gp,6
  7c:	00100693          	li	a3,1
  80:	01f6971b          	slliw	a4,a3,0x1f
  84:	800003b7          	lui	t2,0x80000
  88:	2a771a63          	bne	a4,t2,33c <failed>

000000000000008c <slliw_7>:
  8c:	00700193          	li	gp,7
  90:	fff00693          	li	a3,-1
  94:	0006971b          	slliw	a4,a3,0x0
  98:	fff00393          	li	t2,-1
  9c:	2a771063          	bne	a4,t2,33c <failed>

00000000000000a0 <slliw_8>:
  a0:	00800193          	li	gp,8
  a4:	fff00693          	li	a3,-1
  a8:	0016971b          	slliw	a4,a3,0x1
  ac:	ffe00393          	li	t2,-2
  b0:	28771663          	bne	a4,t2,33c <failed>

00000000000000b4 <slliw_9>:
  b4:	00900193          	li	gp,9
  b8:	fff00693          	li	a3,-1
  bc:	0076971b          	slliw	a4,a3,0x7
  c0:	f8000393          	li	t2,-128
  c4:	26771c63          	bne	a4,t2,33c <failed>

00000000000000c8 <slliw_10>:
  c8:	00a00193          	li	gp,10
  cc:	fff00693          	li	a3,-1
  d0:	00e6971b          	slliw	a4,a3,0xe
  d4:	ffffc3b7          	lui	t2,0xffffc
  d8:	26771263          	bne	a4,t2,33c <failed>

00000000000000dc <slliw_11>:
  dc:	00b00193          	li	gp,11
  e0:	fff00693          	li	a3,-1
  e4:	01f6971b          	slliw	a4,a3,0x1f
  e8:	800003b7          	lui	t2,0x80000
  ec:	24771863          	bne	a4,t2,33c <failed>

00000000000000f0 <slliw_12>:
  f0:	00c00193          	li	gp,12
  f4:	212126b7          	lui	a3,0x21212
  f8:	1216869b          	addiw	a3,a3,289 # 21212121 <_sim_end+0x21202125>
  fc:	0006971b          	slliw	a4,a3,0x0
 100:	212123b7          	lui	t2,0x21212
 104:	1213839b          	addiw	t2,t2,289 # 21212121 <_sim_end+0x21202125>
 108:	22771a63          	bne	a4,t2,33c <failed>

000000000000010c <slliw_13>:
 10c:	00d00193          	li	gp,13
 110:	212126b7          	lui	a3,0x21212
 114:	1216869b          	addiw	a3,a3,289 # 21212121 <_sim_end+0x21202125>
 118:	0016971b          	slliw	a4,a3,0x1
 11c:	424243b7          	lui	t2,0x42424
 120:	2423839b          	addiw	t2,t2,578 # 42424242 <_sim_end+0x42414246>
 124:	20771c63          	bne	a4,t2,33c <failed>

0000000000000128 <slliw_14>:
 128:	00e00193          	li	gp,14
 12c:	212126b7          	lui	a3,0x21212
 130:	1216869b          	addiw	a3,a3,289 # 21212121 <_sim_end+0x21202125>
 134:	0076971b          	slliw	a4,a3,0x7
 138:	909093b7          	lui	t2,0x90909
 13c:	0803839b          	addiw	t2,t2,128 # ffffffff90909080 <_sim_end+0xffffffff908f9084>
 140:	1e771e63          	bne	a4,t2,33c <failed>

0000000000000144 <slliw_15>:
 144:	00f00193          	li	gp,15
 148:	212126b7          	lui	a3,0x21212
 14c:	1216869b          	addiw	a3,a3,289 # 21212121 <_sim_end+0x21202125>
 150:	00e6971b          	slliw	a4,a3,0xe
 154:	484843b7          	lui	t2,0x48484
 158:	1e771263          	bne	a4,t2,33c <failed>

000000000000015c <slliw_16>:
 15c:	01000193          	li	gp,16
 160:	212126b7          	lui	a3,0x21212
 164:	1216869b          	addiw	a3,a3,289 # 21212121 <_sim_end+0x21202125>
 168:	01f6971b          	slliw	a4,a3,0x1f
 16c:	800003b7          	lui	t2,0x80000
 170:	1c771663          	bne	a4,t2,33c <failed>

0000000000000174 <slliw_44>:
 174:	02c00193          	li	gp,44
 178:	fff126b7          	lui	a3,0xfff12
 17c:	3456869b          	addiw	a3,a3,837 # fffffffffff12345 <_sim_end+0xfffffffffff02349>
 180:	00c69693          	slli	a3,a3,0xc
 184:	67868693          	addi	a3,a3,1656
 188:	0006971b          	slliw	a4,a3,0x0
 18c:	123453b7          	lui	t2,0x12345
 190:	6783839b          	addiw	t2,t2,1656 # 12345678 <_sim_end+0x1233567c>
 194:	1a771463          	bne	a4,t2,33c <failed>

0000000000000198 <slliw_45>:
 198:	02d00193          	li	gp,45
 19c:	fff126b7          	lui	a3,0xfff12
 1a0:	3456869b          	addiw	a3,a3,837 # fffffffffff12345 <_sim_end+0xfffffffffff02349>
 1a4:	00c69693          	slli	a3,a3,0xc
 1a8:	67868693          	addi	a3,a3,1656
 1ac:	0046971b          	slliw	a4,a3,0x4
 1b0:	234563b7          	lui	t2,0x23456
 1b4:	7803839b          	addiw	t2,t2,1920 # 23456780 <_sim_end+0x23446784>
 1b8:	18771263          	bne	a4,t2,33c <failed>

00000000000001bc <slliw_46>:
 1bc:	02e00193          	li	gp,46
 1c0:	000926b7          	lui	a3,0x92
 1c4:	3456869b          	addiw	a3,a3,837 # 92345 <_sim_end+0x82349>
 1c8:	00c69693          	slli	a3,a3,0xc
 1cc:	67868693          	addi	a3,a3,1656
 1d0:	0006971b          	slliw	a4,a3,0x0
 1d4:	923453b7          	lui	t2,0x92345
 1d8:	6783839b          	addiw	t2,t2,1656 # ffffffff92345678 <_sim_end+0xffffffff9233567c>
 1dc:	16771063          	bne	a4,t2,33c <failed>

00000000000001e0 <slliw_47>:
 1e0:	02f00193          	li	gp,47
 1e4:	000996b7          	lui	a3,0x99
 1e8:	3456869b          	addiw	a3,a3,837 # 99345 <_sim_end+0x89349>
 1ec:	00c69693          	slli	a3,a3,0xc
 1f0:	67868693          	addi	a3,a3,1656
 1f4:	0046971b          	slliw	a4,a3,0x4
 1f8:	934563b7          	lui	t2,0x93456
 1fc:	7803839b          	addiw	t2,t2,1920 # ffffffff93456780 <_sim_end+0xffffffff93446784>
 200:	12771e63          	bne	a4,t2,33c <failed>

0000000000000204 <slliw_17>:
 204:	01100193          	li	gp,17
 208:	00100593          	li	a1,1
 20c:	0075959b          	slliw	a1,a1,0x7
 210:	08000393          	li	t2,128
 214:	12759463          	bne	a1,t2,33c <failed>

0000000000000218 <slliw_18>:
 218:	01200193          	li	gp,18
 21c:	00000213          	li	tp,0
 220:	00100093          	li	ra,1
 224:	0070971b          	slliw	a4,ra,0x7
 228:	00070313          	mv	t1,a4
 22c:	00120213          	addi	tp,tp,1 # 1 <_start+0x1>
 230:	00200293          	li	t0,2
 234:	fe5216e3          	bne	tp,t0,220 <slliw_18+0x8>
 238:	08000393          	li	t2,128
 23c:	10731063          	bne	t1,t2,33c <failed>

0000000000000240 <slliw_19>:
 240:	01300193          	li	gp,19
 244:	00000213          	li	tp,0
 248:	00100093          	li	ra,1
 24c:	00e0971b          	slliw	a4,ra,0xe
 250:	00000013          	nop
 254:	00070313          	mv	t1,a4
 258:	00120213          	addi	tp,tp,1 # 1 <_start+0x1>
 25c:	00200293          	li	t0,2
 260:	fe5214e3          	bne	tp,t0,248 <slliw_19+0x8>
 264:	000043b7          	lui	t2,0x4
 268:	0c731a63          	bne	t1,t2,33c <failed>

000000000000026c <slliw_20>:
 26c:	01400193          	li	gp,20
 270:	00000213          	li	tp,0
 274:	00100093          	li	ra,1
 278:	01f0971b          	slliw	a4,ra,0x1f
 27c:	00000013          	nop
 280:	00000013          	nop
 284:	00070313          	mv	t1,a4
 288:	00120213          	addi	tp,tp,1 # 1 <_start+0x1>
 28c:	00200293          	li	t0,2
 290:	fe5212e3          	bne	tp,t0,274 <slliw_20+0x8>
 294:	800003b7          	lui	t2,0x80000
 298:	0a731263          	bne	t1,t2,33c <failed>

000000000000029c <slliw_21>:
 29c:	01500193          	li	gp,21
 2a0:	00000213          	li	tp,0
 2a4:	00100093          	li	ra,1
 2a8:	0070971b          	slliw	a4,ra,0x7
 2ac:	00120213          	addi	tp,tp,1 # 1 <_start+0x1>
 2b0:	00200293          	li	t0,2
 2b4:	fe5218e3          	bne	tp,t0,2a4 <slliw_21+0x8>
 2b8:	08000393          	li	t2,128
 2bc:	08771063          	bne	a4,t2,33c <failed>

00000000000002c0 <slliw_22>:
 2c0:	01600193          	li	gp,22
 2c4:	00000213          	li	tp,0
 2c8:	00100093          	li	ra,1
 2cc:	00000013          	nop
 2d0:	00e0971b          	slliw	a4,ra,0xe
 2d4:	00120213          	addi	tp,tp,1 # 1 <_start+0x1>
 2d8:	00200293          	li	t0,2
 2dc:	fe5216e3          	bne	tp,t0,2c8 <slliw_22+0x8>
 2e0:	000043b7          	lui	t2,0x4
 2e4:	04771c63          	bne	a4,t2,33c <failed>

00000000000002e8 <slliw_23>:
 2e8:	01700193          	li	gp,23
 2ec:	00000213          	li	tp,0
 2f0:	00100093          	li	ra,1
 2f4:	00000013          	nop
 2f8:	00000013          	nop
 2fc:	01f0971b          	slliw	a4,ra,0x1f
 300:	00120213          	addi	tp,tp,1 # 1 <_start+0x1>
 304:	00200293          	li	t0,2
 308:	fe5214e3          	bne	tp,t0,2f0 <slliw_23+0x8>
 30c:	800003b7          	lui	t2,0x80000
 310:	02771663          	bne	a4,t2,33c <failed>

0000000000000314 <slliw_24>:
 314:	01800193          	li	gp,24
 318:	01f0109b          	slliw	ra,zero,0x1f
 31c:	00000393          	li	t2,0
 320:	00709e63          	bne	ra,t2,33c <failed>

0000000000000324 <slliw_25>:
 324:	01900193          	li	gp,25
 328:	01f00093          	li	ra,31
 32c:	01c0901b          	slliw	zero,ra,0x1c
 330:	00000393          	li	t2,0
 334:	00701463          	bne	zero,t2,33c <failed>

0000000000000338 <pass>:
 338:	00000193          	li	gp,0

000000000000033c <failed>:
 33c:	00342023          	sw	gp,0(s0)

0000000000000340 <main_exit>:
 340:	000e8093          	mv	ra,t4
 344:	000e0413          	mv	s0,t3
 348:	00008067          	ret
