
./finish/sltiu.elf:     file format elf64-littleriscv
./finish/sltiu.elf
architecture: riscv:rv64, flags 0x00000112:
EXEC_P, HAS_SYMS, D_PAGED
start address 0x0000000000000000

Program Header:
0x70000003 off    0x00000000000012ac vaddr 0x0000000000000000 paddr 0x0000000000000000 align 2**0
         filesz 0x000000000000001a memsz 0x0000000000000000 flags r--
    LOAD off    0x0000000000001000 vaddr 0x0000000000000000 paddr 0x0000000000000000 align 2**12
         filesz 0x00000000000002ac memsz 0x00000000000002ac flags r-x

Sections:
Idx Name          Size      VMA               LMA               File off  Algn
  0 .text         000002ac  0000000000000000  0000000000000000  00001000  2**2
                  CONTENTS, ALLOC, LOAD, READONLY, CODE
  1 .riscv.attributes 0000001a  0000000000000000  0000000000000000  000012ac  2**0
                  CONTENTS, READONLY
SYMBOL TABLE:
0000000000000000 l    d  .text	0000000000000000 .text
0000000000000000 l    d  .riscv.attributes	0000000000000000 .riscv.attributes
0000000000000000 l    df *ABS*	0000000000000000 setup.o
0000000000000000 l       .text	0000000000000000 _start
0000000000000000 l       .text	0000000000000000 init_stack
0000000000000008 l       .text	0000000000000000 SystemInit
000000000000000c l       .text	0000000000000000 SystemExit
000000000000001c l       .text	0000000000000000 dead_loop
0000000000000000 l    df *ABS*	0000000000000000 sltiu.o
0000000000000028 l       .text	0000000000000000 sltiu_2
000000000000029c l       .text	0000000000000000 failed
000000000000003c l       .text	0000000000000000 sltiu_3
0000000000000050 l       .text	0000000000000000 sltiu_4
0000000000000064 l       .text	0000000000000000 sltiu_5
0000000000000078 l       .text	0000000000000000 sltiu_6
000000000000008c l       .text	0000000000000000 sltiu_7
00000000000000a0 l       .text	0000000000000000 sltiu_8
00000000000000b4 l       .text	0000000000000000 sltiu_9
00000000000000c8 l       .text	0000000000000000 sltiu_10
00000000000000e0 l       .text	0000000000000000 sltiu_11
00000000000000f8 l       .text	0000000000000000 sltiu_12
000000000000010c l       .text	0000000000000000 sltiu_13
0000000000000124 l       .text	0000000000000000 sltiu_14
0000000000000138 l       .text	0000000000000000 sltiu_15
000000000000014c l       .text	0000000000000000 sltiu_16
0000000000000160 l       .text	0000000000000000 sltiu_17
0000000000000174 l       .text	0000000000000000 sltiu_18
000000000000019c l       .text	0000000000000000 sltiu_19
00000000000001c8 l       .text	0000000000000000 sltiu_20
00000000000001f8 l       .text	0000000000000000 sltiu_21
000000000000021c l       .text	0000000000000000 sltiu_22
0000000000000244 l       .text	0000000000000000 sltiu_23
0000000000000270 l       .text	0000000000000000 sltiu_24
0000000000000280 l       .text	0000000000000000 sltiu_25
0000000000000298 l       .text	0000000000000000 pass
00000000000002a0 l       .text	0000000000000000 main_exit
000000000000fffc g       .text	0000000000000000 _sim_end
0000000000000020 g       .text	0000000000000000 main
0000000000009000 g       .text	0000000000000000 _answer
000000000000fff0 g       .text	0000000000000000 _stack


Contents of section .text:
 0000 17010100 130101ff ef008001 97020100  ................
 0010 938202ff 1303f0ff 23a06200 6f000000  ........#.b.o...
 0020 130e0400 938e0000 93012000 93060000  .......... .....
 0030 13b70600 93030000 63127726 93013000  ........c.w&..0.
 0040 93061000 13b71600 93030000 63187724  ............c.w$
 0050 93014000 93063000 13b77600 93031000  ..@...0...v.....
 0060 631e7722 93015000 93067000 13b73600  c.w"..P...p...6.
 0070 93030000 63147722 93016000 93060000  ....c.w"..`.....
 0080 13b70680 93031000 631a7720 93017000  ........c.w ..p.
 0090 b7060080 13b70600 93030000 63107720  ............c.w 
 00a0 93018000 b7060080 13b70680 93031000  ................
 00b0 6316771e 93019000 93060000 13b7f67f  c.w.............
 00c0 93031000 631c771c 9301a000 b7060080  ....c.w.........
 00d0 9b86f6ff 13b70600 93030000 6310771c  ............c.w.
 00e0 9301b000 b7060080 9b86f6ff 13b7f67f  ................
 00f0 93030000 6314771a 9301c000 b7060080  ....c.w.........
 0100 13b7f67f 93030000 631a7718 9301d000  ........c.w.....
 0110 b7060080 9b86f6ff 13b70680 93031000  ................
 0120 631e7716 9301e000 93060000 13b7f6ff  c.w.............
 0130 93031000 63147716 9301f000 9306f0ff  ....c.w.........
 0140 13b71600 93030000 631a7714 93010001  ........c.w.....
 0150 9306f0ff 13b7f6ff 93030000 63107714  ............c.w.
 0160 93011001 9305b000 93b5d500 93031000  ................
 0170 63967512 93012001 13020000 9300f000  c.u... .........
 0180 13b7a000 13030700 13021200 93022000  .............. .
 0190 e31652fe 93030000 63127310 93013001  ..R.....c.s...0.
 01a0 13020000 9300a000 13b70001 13000000  ................
 01b0 13030700 13021200 93022000 e31452fe  .......... ...R.
 01c0 93031000 631c730c 93014001 13020000  ....c.s...@.....
 01d0 93000001 13b79000 13000000 13000000  ................
 01e0 13030700 13021200 93022000 e31252fe  .......... ...R.
 01f0 93030000 6314730a 93015001 13020000  ....c.s...P.....
 0200 9300b000 13b7f000 13021200 93022000  .............. .
 0210 e31852fe 93031000 63127708 93016001  ..R.....c.w...`.
 0220 13020000 93001001 13000000 13b78000  ................
 0230 13021200 93022000 e31652fe 93030000  ...... ...R.....
 0240 631e7704 93017001 13020000 9300c000  c.w...p.........
 0250 13000000 13000000 13b7e000 13021200  ................
 0260 93022000 e31452fe 93031000 63187702  .. ...R.....c.w.
 0270 93018001 9330f0ff 93031000 63907002  .....0......c.p.
 0280 93019001 b700ff00 9b80f00f 13b0f0ff  ................
 0290 93030000 63147000 93010000 23203400  ....c.p.....# 4.
 02a0 93800e00 13040e00 67800000           ........g...    
Contents of section .riscv.attributes:
 0000 41190000 00726973 63760001 0f000000  A....riscv......
 0010 05727636 34693270 3100               .rv64i2p1.      

Disassembly of section .text:

0000000000000000 <_start>:
   0:	00010117          	auipc	sp,0x10
   4:	ff010113          	addi	sp,sp,-16 # fff0 <_stack>

0000000000000008 <SystemInit>:
   8:	018000ef          	jal	20 <main>

000000000000000c <SystemExit>:
   c:	00010297          	auipc	t0,0x10
  10:	ff028293          	addi	t0,t0,-16 # fffc <_sim_end>
  14:	fff00313          	li	t1,-1
  18:	0062a023          	sw	t1,0(t0)

000000000000001c <dead_loop>:
  1c:	0000006f          	j	1c <dead_loop>

0000000000000020 <main>:
  20:	00040e13          	mv	t3,s0
  24:	00008e93          	mv	t4,ra

0000000000000028 <sltiu_2>:
  28:	00200193          	li	gp,2
  2c:	00000693          	li	a3,0
  30:	0006b713          	sltiu	a4,a3,0
  34:	00000393          	li	t2,0
  38:	26771263          	bne	a4,t2,29c <failed>

000000000000003c <sltiu_3>:
  3c:	00300193          	li	gp,3
  40:	00100693          	li	a3,1
  44:	0016b713          	seqz	a4,a3
  48:	00000393          	li	t2,0
  4c:	24771863          	bne	a4,t2,29c <failed>

0000000000000050 <sltiu_4>:
  50:	00400193          	li	gp,4
  54:	00300693          	li	a3,3
  58:	0076b713          	sltiu	a4,a3,7
  5c:	00100393          	li	t2,1
  60:	22771e63          	bne	a4,t2,29c <failed>

0000000000000064 <sltiu_5>:
  64:	00500193          	li	gp,5
  68:	00700693          	li	a3,7
  6c:	0036b713          	sltiu	a4,a3,3
  70:	00000393          	li	t2,0
  74:	22771463          	bne	a4,t2,29c <failed>

0000000000000078 <sltiu_6>:
  78:	00600193          	li	gp,6
  7c:	00000693          	li	a3,0
  80:	8006b713          	sltiu	a4,a3,-2048
  84:	00100393          	li	t2,1
  88:	20771a63          	bne	a4,t2,29c <failed>

000000000000008c <sltiu_7>:
  8c:	00700193          	li	gp,7
  90:	800006b7          	lui	a3,0x80000
  94:	0006b713          	sltiu	a4,a3,0
  98:	00000393          	li	t2,0
  9c:	20771063          	bne	a4,t2,29c <failed>

00000000000000a0 <sltiu_8>:
  a0:	00800193          	li	gp,8
  a4:	800006b7          	lui	a3,0x80000
  a8:	8006b713          	sltiu	a4,a3,-2048
  ac:	00100393          	li	t2,1
  b0:	1e771663          	bne	a4,t2,29c <failed>

00000000000000b4 <sltiu_9>:
  b4:	00900193          	li	gp,9
  b8:	00000693          	li	a3,0
  bc:	7ff6b713          	sltiu	a4,a3,2047
  c0:	00100393          	li	t2,1
  c4:	1c771c63          	bne	a4,t2,29c <failed>

00000000000000c8 <sltiu_10>:
  c8:	00a00193          	li	gp,10
  cc:	800006b7          	lui	a3,0x80000
  d0:	fff6869b          	addiw	a3,a3,-1 # 7fffffff <_sim_end+0x7fff0003>
  d4:	0006b713          	sltiu	a4,a3,0
  d8:	00000393          	li	t2,0
  dc:	1c771063          	bne	a4,t2,29c <failed>

00000000000000e0 <sltiu_11>:
  e0:	00b00193          	li	gp,11
  e4:	800006b7          	lui	a3,0x80000
  e8:	fff6869b          	addiw	a3,a3,-1 # 7fffffff <_sim_end+0x7fff0003>
  ec:	7ff6b713          	sltiu	a4,a3,2047
  f0:	00000393          	li	t2,0
  f4:	1a771463          	bne	a4,t2,29c <failed>

00000000000000f8 <sltiu_12>:
  f8:	00c00193          	li	gp,12
  fc:	800006b7          	lui	a3,0x80000
 100:	7ff6b713          	sltiu	a4,a3,2047
 104:	00000393          	li	t2,0
 108:	18771a63          	bne	a4,t2,29c <failed>

000000000000010c <sltiu_13>:
 10c:	00d00193          	li	gp,13
 110:	800006b7          	lui	a3,0x80000
 114:	fff6869b          	addiw	a3,a3,-1 # 7fffffff <_sim_end+0x7fff0003>
 118:	8006b713          	sltiu	a4,a3,-2048
 11c:	00100393          	li	t2,1
 120:	16771e63          	bne	a4,t2,29c <failed>

0000000000000124 <sltiu_14>:
 124:	00e00193          	li	gp,14
 128:	00000693          	li	a3,0
 12c:	fff6b713          	sltiu	a4,a3,-1
 130:	00100393          	li	t2,1
 134:	16771463          	bne	a4,t2,29c <failed>

0000000000000138 <sltiu_15>:
 138:	00f00193          	li	gp,15
 13c:	fff00693          	li	a3,-1
 140:	0016b713          	seqz	a4,a3
 144:	00000393          	li	t2,0
 148:	14771a63          	bne	a4,t2,29c <failed>

000000000000014c <sltiu_16>:
 14c:	01000193          	li	gp,16
 150:	fff00693          	li	a3,-1
 154:	fff6b713          	sltiu	a4,a3,-1
 158:	00000393          	li	t2,0
 15c:	14771063          	bne	a4,t2,29c <failed>

0000000000000160 <sltiu_17>:
 160:	01100193          	li	gp,17
 164:	00b00593          	li	a1,11
 168:	00d5b593          	sltiu	a1,a1,13
 16c:	00100393          	li	t2,1
 170:	12759663          	bne	a1,t2,29c <failed>

0000000000000174 <sltiu_18>:
 174:	01200193          	li	gp,18
 178:	00000213          	li	tp,0
 17c:	00f00093          	li	ra,15
 180:	00a0b713          	sltiu	a4,ra,10
 184:	00070313          	mv	t1,a4
 188:	00120213          	addi	tp,tp,1 # 1 <_start+0x1>
 18c:	00200293          	li	t0,2
 190:	fe5216e3          	bne	tp,t0,17c <sltiu_18+0x8>
 194:	00000393          	li	t2,0
 198:	10731263          	bne	t1,t2,29c <failed>

000000000000019c <sltiu_19>:
 19c:	01300193          	li	gp,19
 1a0:	00000213          	li	tp,0
 1a4:	00a00093          	li	ra,10
 1a8:	0100b713          	sltiu	a4,ra,16
 1ac:	00000013          	nop
 1b0:	00070313          	mv	t1,a4
 1b4:	00120213          	addi	tp,tp,1 # 1 <_start+0x1>
 1b8:	00200293          	li	t0,2
 1bc:	fe5214e3          	bne	tp,t0,1a4 <sltiu_19+0x8>
 1c0:	00100393          	li	t2,1
 1c4:	0c731c63          	bne	t1,t2,29c <failed>

00000000000001c8 <sltiu_20>:
 1c8:	01400193          	li	gp,20
 1cc:	00000213          	li	tp,0
 1d0:	01000093          	li	ra,16
 1d4:	0090b713          	sltiu	a4,ra,9
 1d8:	00000013          	nop
 1dc:	00000013          	nop
 1e0:	00070313          	mv	t1,a4
 1e4:	00120213          	addi	tp,tp,1 # 1 <_start+0x1>
 1e8:	00200293          	li	t0,2
 1ec:	fe5212e3          	bne	tp,t0,1d0 <sltiu_20+0x8>
 1f0:	00000393          	li	t2,0
 1f4:	0a731463          	bne	t1,t2,29c <failed>

00000000000001f8 <sltiu_21>:
 1f8:	01500193          	li	gp,21
 1fc:	00000213          	li	tp,0
 200:	00b00093          	li	ra,11
 204:	00f0b713          	sltiu	a4,ra,15
 208:	00120213          	addi	tp,tp,1 # 1 <_start+0x1>
 20c:	00200293          	li	t0,2
 210:	fe5218e3          	bne	tp,t0,200 <sltiu_21+0x8>
 214:	00100393          	li	t2,1
 218:	08771263          	bne	a4,t2,29c <failed>

000000000000021c <sltiu_22>:
 21c:	01600193          	li	gp,22
 220:	00000213          	li	tp,0
 224:	01100093          	li	ra,17
 228:	00000013          	nop
 22c:	0080b713          	sltiu	a4,ra,8
 230:	00120213          	addi	tp,tp,1 # 1 <_start+0x1>
 234:	00200293          	li	t0,2
 238:	fe5216e3          	bne	tp,t0,224 <sltiu_22+0x8>
 23c:	00000393          	li	t2,0
 240:	04771e63          	bne	a4,t2,29c <failed>

0000000000000244 <sltiu_23>:
 244:	01700193          	li	gp,23
 248:	00000213          	li	tp,0
 24c:	00c00093          	li	ra,12
 250:	00000013          	nop
 254:	00000013          	nop
 258:	00e0b713          	sltiu	a4,ra,14
 25c:	00120213          	addi	tp,tp,1 # 1 <_start+0x1>
 260:	00200293          	li	t0,2
 264:	fe5214e3          	bne	tp,t0,24c <sltiu_23+0x8>
 268:	00100393          	li	t2,1
 26c:	02771863          	bne	a4,t2,29c <failed>

0000000000000270 <sltiu_24>:
 270:	01800193          	li	gp,24
 274:	fff03093          	sltiu	ra,zero,-1
 278:	00100393          	li	t2,1
 27c:	02709063          	bne	ra,t2,29c <failed>

0000000000000280 <sltiu_25>:
 280:	01900193          	li	gp,25
 284:	00ff00b7          	lui	ra,0xff0
 288:	0ff0809b          	addiw	ra,ra,255 # ff00ff <_sim_end+0xfe0103>
 28c:	fff0b013          	sltiu	zero,ra,-1
 290:	00000393          	li	t2,0
 294:	00701463          	bne	zero,t2,29c <failed>

0000000000000298 <pass>:
 298:	00000193          	li	gp,0

000000000000029c <failed>:
 29c:	00342023          	sw	gp,0(s0)

00000000000002a0 <main_exit>:
 2a0:	000e8093          	mv	ra,t4
 2a4:	000e0413          	mv	s0,t3
 2a8:	00008067          	ret
