
./finish/slti.elf:     file format elf64-littleriscv
./finish/slti.elf
architecture: riscv:rv64, flags 0x00000112:
EXEC_P, HAS_SYMS, D_PAGED
start address 0x0000000000000000

Program Header:
0x70000003 off    0x00000000000012b4 vaddr 0x0000000000000000 paddr 0x0000000000000000 align 2**0
         filesz 0x000000000000001a memsz 0x0000000000000000 flags r--
    LOAD off    0x0000000000001000 vaddr 0x0000000000000000 paddr 0x0000000000000000 align 2**12
         filesz 0x00000000000002b4 memsz 0x00000000000002b4 flags r-x

Sections:
Idx Name          Size      VMA               LMA               File off  Algn
  0 .text         000002b4  0000000000000000  0000000000000000  00001000  2**2
                  CONTENTS, ALLOC, LOAD, READONLY, CODE
  1 .riscv.attributes 0000001a  0000000000000000  0000000000000000  000012b4  2**0
                  CONTENTS, READONLY
SYMBOL TABLE:
0000000000000000 l    d  .text	0000000000000000 .text
0000000000000000 l    d  .riscv.attributes	0000000000000000 .riscv.attributes
0000000000000000 l    df *ABS*	0000000000000000 setup.o
0000000000000000 l       .text	0000000000000000 _start
0000000000000000 l       .text	0000000000000000 init_stack
0000000000000008 l       .text	0000000000000000 SystemInit
000000000000000c l       .text	0000000000000000 SystemExit
000000000000001c l       .text	0000000000000000 dead_loop
0000000000000000 l    df *ABS*	0000000000000000 slti.o
0000000000000030 l       .text	0000000000000000 slti_2
00000000000002a4 l       .text	0000000000000000 failed
0000000000000044 l       .text	0000000000000000 slti_3
0000000000000058 l       .text	0000000000000000 slti_4
000000000000006c l       .text	0000000000000000 slti_5
0000000000000080 l       .text	0000000000000000 slti_6
0000000000000094 l       .text	0000000000000000 slti_7
00000000000000a8 l       .text	0000000000000000 slti_8
00000000000000bc l       .text	0000000000000000 slti_9
00000000000000d0 l       .text	0000000000000000 slti_10
00000000000000e8 l       .text	0000000000000000 slti_11
0000000000000100 l       .text	0000000000000000 slti_12
0000000000000114 l       .text	0000000000000000 slti_13
000000000000012c l       .text	0000000000000000 slti_14
0000000000000140 l       .text	0000000000000000 slti_15
0000000000000154 l       .text	0000000000000000 slti_16
0000000000000168 l       .text	0000000000000000 slti_17
000000000000017c l       .text	0000000000000000 slti_18
00000000000001a4 l       .text	0000000000000000 slti_19
00000000000001d0 l       .text	0000000000000000 slti_20
0000000000000200 l       .text	0000000000000000 slti_21
0000000000000224 l       .text	0000000000000000 slti_22
000000000000024c l       .text	0000000000000000 slti_23
0000000000000278 l       .text	0000000000000000 slti_24
0000000000000288 l       .text	0000000000000000 slti_25
00000000000002a0 l       .text	0000000000000000 pass
00000000000002a8 l       .text	0000000000000000 main_exit
000000000000fffc g       .text	0000000000000000 _sim_end
0000000000000020 g       .text	0000000000000000 main
0000000000009000 g       .text	0000000000000000 _answer
000000000000fff0 g       .text	0000000000000000 _stack


Contents of section .text:
 0000 17010100 130101ff ef008001 97020100  ................
 0010 938202ff 1303f0ff 23a06200 6f000000  ........#.b.o...
 0020 130181ff 23208100 17940000 130484fd  ....# ..........
 0030 93012000 93060000 13a70600 93030000  .. .............
 0040 63127726 93013000 93061000 13a71600  c.w&..0.........
 0050 93030000 63187724 93014000 93063000  ....c.w$..@...0.
 0060 13a77600 93031000 631e7722 93015000  ..v.....c.w"..P.
 0070 93067000 13a73600 93030000 63147722  ..p...6.....c.w"
 0080 93016000 93060000 13a70680 93030000  ..`.............
 0090 631a7720 93017000 b7060080 13a70600  c.w ..p.........
 00a0 93031000 63107720 93018000 b7060080  ....c.w ........
 00b0 13a70680 93031000 6316771e 93019000  ........c.w.....
 00c0 93060000 13a7f67f 93031000 631c771c  ............c.w.
 00d0 9301a000 b7060080 9b86f6ff 13a70600  ................
 00e0 93030000 6310771c 9301b000 b7060080  ....c.w.........
 00f0 9b86f6ff 13a7f67f 93030000 6314771a  ............c.w.
 0100 9301c000 b7060080 13a7f67f 93031000  ................
 0110 631a7718 9301d000 b7060080 9b86f6ff  c.w.............
 0120 13a70680 93030000 631e7716 9301e000  ........c.w.....
 0130 93060000 13a7f6ff 93030000 63147716  ............c.w.
 0140 9301f000 9306f0ff 13a71600 93031000  ................
 0150 631a7714 93010001 9306f0ff 13a7f6ff  c.w.............
 0160 93030000 63107714 93011001 9305b000  ....c.w.........
 0170 93a5d500 93031000 63967512 93012001  ........c.u... .
 0180 13020000 9300f000 13a7a000 13030700  ................
 0190 13021200 93022000 e31652fe 93030000  ...... ...R.....
 01a0 63127310 93013001 13020000 9300a000  c.s...0.........
 01b0 13a70001 13000000 13030700 13021200  ................
 01c0 93022000 e31452fe 93031000 631c730c  .. ...R.....c.s.
 01d0 93014001 13020000 93000001 13a79000  ..@.............
 01e0 13000000 13000000 13030700 13021200  ................
 01f0 93022000 e31252fe 93030000 6314730a  .. ...R.....c.s.
 0200 93015001 13020000 9300b000 13a7f000  ..P.............
 0210 13021200 93022000 e31852fe 93031000  ...... ...R.....
 0220 63127708 93016001 13020000 93001001  c.w...`.........
 0230 13000000 13a78000 13021200 93022000  .............. .
 0240 e31652fe 93030000 631e7704 93017001  ..R.....c.w...p.
 0250 13020000 9300c000 13000000 13000000  ................
 0260 13a7e000 13021200 93022000 e31452fe  .......... ...R.
 0270 93031000 63187702 93018001 9320f0ff  ....c.w...... ..
 0280 93030000 63907002 93019001 b700ff00  ....c.p.........
 0290 9b80f00f 13a0f0ff 93030000 63147000  ............c.p.
 02a0 93010000 23203400 03240100 13018100  ....# 4..$......
 02b0 67800000                             g...            
Contents of section .riscv.attributes:
 0000 41190000 00726973 63760001 0f000000  A....riscv......
 0010 05727636 34693270 3100               .rv64i2p1.      

Disassembly of section .text:

0000000000000000 <_start>:
   0:	00010117          	auipc	sp,0x10
   4:	ff010113          	addi	sp,sp,-16 # fff0 <_stack>

0000000000000008 <SystemInit>:
   8:	018000ef          	jal	20 <main>

000000000000000c <SystemExit>:
   c:	00010297          	auipc	t0,0x10
  10:	ff028293          	addi	t0,t0,-16 # fffc <_sim_end>
  14:	fff00313          	li	t1,-1
  18:	0062a023          	sw	t1,0(t0)

000000000000001c <dead_loop>:
  1c:	0000006f          	j	1c <dead_loop>

0000000000000020 <main>:
  20:	ff810113          	addi	sp,sp,-8
  24:	00812023          	sw	s0,0(sp)
  28:	00009417          	auipc	s0,0x9
  2c:	fd840413          	addi	s0,s0,-40 # 9000 <_answer>

0000000000000030 <slti_2>:
  30:	00200193          	li	gp,2
  34:	00000693          	li	a3,0
  38:	0006a713          	slti	a4,a3,0
  3c:	00000393          	li	t2,0
  40:	26771263          	bne	a4,t2,2a4 <failed>

0000000000000044 <slti_3>:
  44:	00300193          	li	gp,3
  48:	00100693          	li	a3,1
  4c:	0016a713          	slti	a4,a3,1
  50:	00000393          	li	t2,0
  54:	24771863          	bne	a4,t2,2a4 <failed>

0000000000000058 <slti_4>:
  58:	00400193          	li	gp,4
  5c:	00300693          	li	a3,3
  60:	0076a713          	slti	a4,a3,7
  64:	00100393          	li	t2,1
  68:	22771e63          	bne	a4,t2,2a4 <failed>

000000000000006c <slti_5>:
  6c:	00500193          	li	gp,5
  70:	00700693          	li	a3,7
  74:	0036a713          	slti	a4,a3,3
  78:	00000393          	li	t2,0
  7c:	22771463          	bne	a4,t2,2a4 <failed>

0000000000000080 <slti_6>:
  80:	00600193          	li	gp,6
  84:	00000693          	li	a3,0
  88:	8006a713          	slti	a4,a3,-2048
  8c:	00000393          	li	t2,0
  90:	20771a63          	bne	a4,t2,2a4 <failed>

0000000000000094 <slti_7>:
  94:	00700193          	li	gp,7
  98:	800006b7          	lui	a3,0x80000
  9c:	0006a713          	slti	a4,a3,0
  a0:	00100393          	li	t2,1
  a4:	20771063          	bne	a4,t2,2a4 <failed>

00000000000000a8 <slti_8>:
  a8:	00800193          	li	gp,8
  ac:	800006b7          	lui	a3,0x80000
  b0:	8006a713          	slti	a4,a3,-2048
  b4:	00100393          	li	t2,1
  b8:	1e771663          	bne	a4,t2,2a4 <failed>

00000000000000bc <slti_9>:
  bc:	00900193          	li	gp,9
  c0:	00000693          	li	a3,0
  c4:	7ff6a713          	slti	a4,a3,2047
  c8:	00100393          	li	t2,1
  cc:	1c771c63          	bne	a4,t2,2a4 <failed>

00000000000000d0 <slti_10>:
  d0:	00a00193          	li	gp,10
  d4:	800006b7          	lui	a3,0x80000
  d8:	fff6869b          	addiw	a3,a3,-1 # 7fffffff <_sim_end+0x7fff0003>
  dc:	0006a713          	slti	a4,a3,0
  e0:	00000393          	li	t2,0
  e4:	1c771063          	bne	a4,t2,2a4 <failed>

00000000000000e8 <slti_11>:
  e8:	00b00193          	li	gp,11
  ec:	800006b7          	lui	a3,0x80000
  f0:	fff6869b          	addiw	a3,a3,-1 # 7fffffff <_sim_end+0x7fff0003>
  f4:	7ff6a713          	slti	a4,a3,2047
  f8:	00000393          	li	t2,0
  fc:	1a771463          	bne	a4,t2,2a4 <failed>

0000000000000100 <slti_12>:
 100:	00c00193          	li	gp,12
 104:	800006b7          	lui	a3,0x80000
 108:	7ff6a713          	slti	a4,a3,2047
 10c:	00100393          	li	t2,1
 110:	18771a63          	bne	a4,t2,2a4 <failed>

0000000000000114 <slti_13>:
 114:	00d00193          	li	gp,13
 118:	800006b7          	lui	a3,0x80000
 11c:	fff6869b          	addiw	a3,a3,-1 # 7fffffff <_sim_end+0x7fff0003>
 120:	8006a713          	slti	a4,a3,-2048
 124:	00000393          	li	t2,0
 128:	16771e63          	bne	a4,t2,2a4 <failed>

000000000000012c <slti_14>:
 12c:	00e00193          	li	gp,14
 130:	00000693          	li	a3,0
 134:	fff6a713          	slti	a4,a3,-1
 138:	00000393          	li	t2,0
 13c:	16771463          	bne	a4,t2,2a4 <failed>

0000000000000140 <slti_15>:
 140:	00f00193          	li	gp,15
 144:	fff00693          	li	a3,-1
 148:	0016a713          	slti	a4,a3,1
 14c:	00100393          	li	t2,1
 150:	14771a63          	bne	a4,t2,2a4 <failed>

0000000000000154 <slti_16>:
 154:	01000193          	li	gp,16
 158:	fff00693          	li	a3,-1
 15c:	fff6a713          	slti	a4,a3,-1
 160:	00000393          	li	t2,0
 164:	14771063          	bne	a4,t2,2a4 <failed>

0000000000000168 <slti_17>:
 168:	01100193          	li	gp,17
 16c:	00b00593          	li	a1,11
 170:	00d5a593          	slti	a1,a1,13
 174:	00100393          	li	t2,1
 178:	12759663          	bne	a1,t2,2a4 <failed>

000000000000017c <slti_18>:
 17c:	01200193          	li	gp,18
 180:	00000213          	li	tp,0
 184:	00f00093          	li	ra,15
 188:	00a0a713          	slti	a4,ra,10
 18c:	00070313          	mv	t1,a4
 190:	00120213          	addi	tp,tp,1 # 1 <_start+0x1>
 194:	00200293          	li	t0,2
 198:	fe5216e3          	bne	tp,t0,184 <slti_18+0x8>
 19c:	00000393          	li	t2,0
 1a0:	10731263          	bne	t1,t2,2a4 <failed>

00000000000001a4 <slti_19>:
 1a4:	01300193          	li	gp,19
 1a8:	00000213          	li	tp,0
 1ac:	00a00093          	li	ra,10
 1b0:	0100a713          	slti	a4,ra,16
 1b4:	00000013          	nop
 1b8:	00070313          	mv	t1,a4
 1bc:	00120213          	addi	tp,tp,1 # 1 <_start+0x1>
 1c0:	00200293          	li	t0,2
 1c4:	fe5214e3          	bne	tp,t0,1ac <slti_19+0x8>
 1c8:	00100393          	li	t2,1
 1cc:	0c731c63          	bne	t1,t2,2a4 <failed>

00000000000001d0 <slti_20>:
 1d0:	01400193          	li	gp,20
 1d4:	00000213          	li	tp,0
 1d8:	01000093          	li	ra,16
 1dc:	0090a713          	slti	a4,ra,9
 1e0:	00000013          	nop
 1e4:	00000013          	nop
 1e8:	00070313          	mv	t1,a4
 1ec:	00120213          	addi	tp,tp,1 # 1 <_start+0x1>
 1f0:	00200293          	li	t0,2
 1f4:	fe5212e3          	bne	tp,t0,1d8 <slti_20+0x8>
 1f8:	00000393          	li	t2,0
 1fc:	0a731463          	bne	t1,t2,2a4 <failed>

0000000000000200 <slti_21>:
 200:	01500193          	li	gp,21
 204:	00000213          	li	tp,0
 208:	00b00093          	li	ra,11
 20c:	00f0a713          	slti	a4,ra,15
 210:	00120213          	addi	tp,tp,1 # 1 <_start+0x1>
 214:	00200293          	li	t0,2
 218:	fe5218e3          	bne	tp,t0,208 <slti_21+0x8>
 21c:	00100393          	li	t2,1
 220:	08771263          	bne	a4,t2,2a4 <failed>

0000000000000224 <slti_22>:
 224:	01600193          	li	gp,22
 228:	00000213          	li	tp,0
 22c:	01100093          	li	ra,17
 230:	00000013          	nop
 234:	0080a713          	slti	a4,ra,8
 238:	00120213          	addi	tp,tp,1 # 1 <_start+0x1>
 23c:	00200293          	li	t0,2
 240:	fe5216e3          	bne	tp,t0,22c <slti_22+0x8>
 244:	00000393          	li	t2,0
 248:	04771e63          	bne	a4,t2,2a4 <failed>

000000000000024c <slti_23>:
 24c:	01700193          	li	gp,23
 250:	00000213          	li	tp,0
 254:	00c00093          	li	ra,12
 258:	00000013          	nop
 25c:	00000013          	nop
 260:	00e0a713          	slti	a4,ra,14
 264:	00120213          	addi	tp,tp,1 # 1 <_start+0x1>
 268:	00200293          	li	t0,2
 26c:	fe5214e3          	bne	tp,t0,254 <slti_23+0x8>
 270:	00100393          	li	t2,1
 274:	02771863          	bne	a4,t2,2a4 <failed>

0000000000000278 <slti_24>:
 278:	01800193          	li	gp,24
 27c:	fff02093          	slti	ra,zero,-1
 280:	00000393          	li	t2,0
 284:	02709063          	bne	ra,t2,2a4 <failed>

0000000000000288 <slti_25>:
 288:	01900193          	li	gp,25
 28c:	00ff00b7          	lui	ra,0xff0
 290:	0ff0809b          	addiw	ra,ra,255 # ff00ff <_sim_end+0xfe0103>
 294:	fff0a013          	slti	zero,ra,-1
 298:	00000393          	li	t2,0
 29c:	00701463          	bne	zero,t2,2a4 <failed>

00000000000002a0 <pass>:
 2a0:	00000193          	li	gp,0

00000000000002a4 <failed>:
 2a4:	00342023          	sw	gp,0(s0)

00000000000002a8 <main_exit>:
 2a8:	00012403          	lw	s0,0(sp)
 2ac:	00810113          	addi	sp,sp,8
 2b0:	00008067          	ret
