
./finish/srai.elf:     file format elf64-littleriscv
./finish/srai.elf
architecture: riscv:rv64, flags 0x00000112:
EXEC_P, HAS_SYMS, D_PAGED
start address 0x0000000000000000

Program Header:
0x70000003 off    0x0000000000001300 vaddr 0x0000000000000000 paddr 0x0000000000000000 align 2**0
         filesz 0x000000000000001a memsz 0x0000000000000000 flags r--
    LOAD off    0x0000000000001000 vaddr 0x0000000000000000 paddr 0x0000000000000000 align 2**12
         filesz 0x0000000000000300 memsz 0x0000000000000300 flags r-x

Sections:
Idx Name          Size      VMA               LMA               File off  Algn
  0 .text         00000300  0000000000000000  0000000000000000  00001000  2**2
                  CONTENTS, ALLOC, LOAD, READONLY, CODE
  1 .riscv.attributes 0000001a  0000000000000000  0000000000000000  00001300  2**0
                  CONTENTS, READONLY
SYMBOL TABLE:
0000000000000000 l    d  .text	0000000000000000 .text
0000000000000000 l    d  .riscv.attributes	0000000000000000 .riscv.attributes
0000000000000000 l    df *ABS*	0000000000000000 setup.o
0000000000000000 l       .text	0000000000000000 _start
0000000000000000 l       .text	0000000000000000 init_stack
0000000000000008 l       .text	0000000000000000 SystemInit
000000000000000c l       .text	0000000000000000 SystemExit
000000000000001c l       .text	0000000000000000 dead_loop
0000000000000000 l    df *ABS*	0000000000000000 srai.o
0000000000000030 l       .text	0000000000000000 srai_2
00000000000002f0 l       .text	0000000000000000 failed
000000000000004c l       .text	0000000000000000 srai_3
0000000000000060 l       .text	0000000000000000 srai_4
0000000000000074 l       .text	0000000000000000 srai_5
0000000000000088 l       .text	0000000000000000 srai_6
00000000000000a0 l       .text	0000000000000000 srai_7
00000000000000bc l       .text	0000000000000000 srai_8
00000000000000d8 l       .text	0000000000000000 srai_9
00000000000000f4 l       .text	0000000000000000 srai_10
0000000000000110 l       .text	0000000000000000 srai_11
0000000000000128 l       .text	0000000000000000 srai_12
0000000000000144 l       .text	0000000000000000 srai_13
0000000000000160 l       .text	0000000000000000 srai_14
000000000000017c l       .text	0000000000000000 srai_15
0000000000000198 l       .text	0000000000000000 srai_16
00000000000001b0 l       .text	0000000000000000 srai_17
00000000000001c4 l       .text	0000000000000000 srai_18
00000000000001ec l       .text	0000000000000000 srai_19
0000000000000218 l       .text	0000000000000000 srai_20
000000000000024c l       .text	0000000000000000 srai_21
0000000000000270 l       .text	0000000000000000 srai_22
0000000000000298 l       .text	0000000000000000 srai_23
00000000000002c8 l       .text	0000000000000000 srai_24
00000000000002d8 l       .text	0000000000000000 srai_25
00000000000002ec l       .text	0000000000000000 pass
00000000000002f4 l       .text	0000000000000000 main_exit
000000000000fffc g       .text	0000000000000000 _sim_end
0000000000000020 g       .text	0000000000000000 main
0000000000009000 g       .text	0000000000000000 _answer
000000000000fff0 g       .text	0000000000000000 _stack


Contents of section .text:
 0000 17010100 130101ff ef008001 97020100  ................
 0010 938202ff 1303f0ff 23a06200 6f000000  ........#.b.o...
 0020 130181ff 23208100 17940000 130484fd  ....# ..........
 0030 93012000 9b06f0ff 93967602 13d70640  .. .......v....@
 0040 9b03f0ff 93937302 6314772a 93013000  ......s.c.w*..0.
 0050 b7060080 13d71640 b70300c0 631a7728  .......@....c.w(
 0060 93014000 b7060080 13d77640 b70300ff  ..@.......v@....
 0070 63107728 93015000 b7060080 13d7e640  c.w(..P........@
 0080 b703feff 63167726 93016000 b7060080  ....c.w&..`.....
 0090 9b861600 13d7f641 9303f0ff 631a7724  .......A....c.w$
 00a0 93017000 b7060080 9b86f6ff 13d70640  ..p............@
 00b0 b7030080 9b83f3ff 631c7722 93018000  ........c.w"....
 00c0 b7060080 9b86f6ff 13d71640 b7030040  ...........@...@
 00d0 9b83f3ff 631e7720 93019000 b7060080  ....c.w ........
 00e0 9b86f6ff 13d77640 b7030001 9b83f3ff  ......v@........
 00f0 63107720 9301a000 b7060080 9b86f6ff  c.w ............
 0100 13d7e640 b7030200 9b83f3ff 6312771e  ...@........c.w.
 0110 9301b000 b7060080 9b86f6ff 13d7f641  ...............A
 0120 93030000 6316771c 9301c000 b7868181  ....c.w.........
 0130 9b861618 13d70640 b7838181 9b831318  .......@........
 0140 6318771a 9301d000 b7868181 9b861618  c.w.............
 0150 13d71640 b7c3c0c0 9b83030c 631a7718  ...@........c.w.
 0160 9301e000 b7868181 9b861618 13d77640  ..............v@
 0170 b70303ff 9b833330 631c7716 9301f000  ......30c.w.....
 0180 b7868181 9b861618 13d7e640 b703feff  ...........@....
 0190 9b836360 631e7714 93010001 b7868181  ..c`c.w.........
 01a0 9b861618 13d7f641 9303f0ff 63127714  .......A....c.w.
 01b0 93011001 b7050080 93d57540 b70300ff  ..........u@....
 01c0 63987512 93012001 13020000 b7000080  c.u... .........
 01d0 13d77040 13030700 13021200 93022000  ..p@.......... .
 01e0 e31652fe b70300ff 63147310 93013001  ..R.....c.s...0.
 01f0 13020000 b7000080 13d7e040 13000000  ...........@....
 0200 13030700 13021200 93022000 e31452fe  .......... ...R.
 0210 b703feff 631e730c 93014001 13020000  ....c.s...@.....
 0220 b7000080 9b801000 13d7f041 13000000  ...........A....
 0230 13000000 13030700 13021200 93022000  .............. .
 0240 e31052fe 9303f0ff 6314730a 93015001  ..R.....c.s...P.
 0250 13020000 b7000080 13d77040 13021200  ..........p@....
 0260 93022000 e31852fe b70300ff 63127708  .. ...R.....c.w.
 0270 93016001 13020000 b7000080 13000000  ..`.............
 0280 13d7e040 13021200 93022000 e31652fe  ...@...... ...R.
 0290 b703feff 631e7704 93017001 13020000  ....c.w...p.....
 02a0 b7000080 9b801000 13000000 13000000  ................
 02b0 13d7f041 13021200 93022000 e31252fe  ...A...... ...R.
 02c0 9303f0ff 63167702 93018001 93504040  ....c.w......P@@
 02d0 93030000 639e7000 93019001 93001002  ....c.p.........
 02e0 13d0a040 93030000 63147000 93010000  ...@....c.p.....
 02f0 23203400 03240100 13018100 67800000  # 4..$......g...
Contents of section .riscv.attributes:
 0000 41190000 00726973 63760001 0f000000  A....riscv......
 0010 05727636 34693270 3100               .rv64i2p1.      

Disassembly of section .text:

0000000000000000 <_start>:
   0:	00010117          	auipc	sp,0x10
   4:	ff010113          	addi	sp,sp,-16 # fff0 <_stack>

0000000000000008 <SystemInit>:
   8:	018000ef          	jal	20 <main>

000000000000000c <SystemExit>:
   c:	00010297          	auipc	t0,0x10
  10:	ff028293          	addi	t0,t0,-16 # fffc <_sim_end>
  14:	fff00313          	li	t1,-1
  18:	0062a023          	sw	t1,0(t0)

000000000000001c <dead_loop>:
  1c:	0000006f          	j	1c <dead_loop>

0000000000000020 <main>:
  20:	ff810113          	addi	sp,sp,-8
  24:	00812023          	sw	s0,0(sp)
  28:	00009417          	auipc	s0,0x9
  2c:	fd840413          	addi	s0,s0,-40 # 9000 <_answer>

0000000000000030 <srai_2>:
  30:	00200193          	li	gp,2
  34:	fff0069b          	addiw	a3,zero,-1
  38:	02769693          	slli	a3,a3,0x27
  3c:	4006d713          	srai	a4,a3,0x0
  40:	fff0039b          	addiw	t2,zero,-1
  44:	02739393          	slli	t2,t2,0x27
  48:	2a771463          	bne	a4,t2,2f0 <failed>

000000000000004c <srai_3>:
  4c:	00300193          	li	gp,3
  50:	800006b7          	lui	a3,0x80000
  54:	4016d713          	srai	a4,a3,0x1
  58:	c00003b7          	lui	t2,0xc0000
  5c:	28771a63          	bne	a4,t2,2f0 <failed>

0000000000000060 <srai_4>:
  60:	00400193          	li	gp,4
  64:	800006b7          	lui	a3,0x80000
  68:	4076d713          	srai	a4,a3,0x7
  6c:	ff0003b7          	lui	t2,0xff000
  70:	28771063          	bne	a4,t2,2f0 <failed>

0000000000000074 <srai_5>:
  74:	00500193          	li	gp,5
  78:	800006b7          	lui	a3,0x80000
  7c:	40e6d713          	srai	a4,a3,0xe
  80:	fffe03b7          	lui	t2,0xfffe0
  84:	26771663          	bne	a4,t2,2f0 <failed>

0000000000000088 <srai_6>:
  88:	00600193          	li	gp,6
  8c:	800006b7          	lui	a3,0x80000
  90:	0016869b          	addiw	a3,a3,1 # ffffffff80000001 <_sim_end+0xffffffff7fff0005>
  94:	41f6d713          	srai	a4,a3,0x1f
  98:	fff00393          	li	t2,-1
  9c:	24771a63          	bne	a4,t2,2f0 <failed>

00000000000000a0 <srai_7>:
  a0:	00700193          	li	gp,7
  a4:	800006b7          	lui	a3,0x80000
  a8:	fff6869b          	addiw	a3,a3,-1 # 7fffffff <_sim_end+0x7fff0003>
  ac:	4006d713          	srai	a4,a3,0x0
  b0:	800003b7          	lui	t2,0x80000
  b4:	fff3839b          	addiw	t2,t2,-1 # 7fffffff <_sim_end+0x7fff0003>
  b8:	22771c63          	bne	a4,t2,2f0 <failed>

00000000000000bc <srai_8>:
  bc:	00800193          	li	gp,8
  c0:	800006b7          	lui	a3,0x80000
  c4:	fff6869b          	addiw	a3,a3,-1 # 7fffffff <_sim_end+0x7fff0003>
  c8:	4016d713          	srai	a4,a3,0x1
  cc:	400003b7          	lui	t2,0x40000
  d0:	fff3839b          	addiw	t2,t2,-1 # 3fffffff <_sim_end+0x3fff0003>
  d4:	20771e63          	bne	a4,t2,2f0 <failed>

00000000000000d8 <srai_9>:
  d8:	00900193          	li	gp,9
  dc:	800006b7          	lui	a3,0x80000
  e0:	fff6869b          	addiw	a3,a3,-1 # 7fffffff <_sim_end+0x7fff0003>
  e4:	4076d713          	srai	a4,a3,0x7
  e8:	010003b7          	lui	t2,0x1000
  ec:	fff3839b          	addiw	t2,t2,-1 # ffffff <_sim_end+0xff0003>
  f0:	20771063          	bne	a4,t2,2f0 <failed>

00000000000000f4 <srai_10>:
  f4:	00a00193          	li	gp,10
  f8:	800006b7          	lui	a3,0x80000
  fc:	fff6869b          	addiw	a3,a3,-1 # 7fffffff <_sim_end+0x7fff0003>
 100:	40e6d713          	srai	a4,a3,0xe
 104:	000203b7          	lui	t2,0x20
 108:	fff3839b          	addiw	t2,t2,-1 # 1ffff <_sim_end+0x10003>
 10c:	1e771263          	bne	a4,t2,2f0 <failed>

0000000000000110 <srai_11>:
 110:	00b00193          	li	gp,11
 114:	800006b7          	lui	a3,0x80000
 118:	fff6869b          	addiw	a3,a3,-1 # 7fffffff <_sim_end+0x7fff0003>
 11c:	41f6d713          	srai	a4,a3,0x1f
 120:	00000393          	li	t2,0
 124:	1c771663          	bne	a4,t2,2f0 <failed>

0000000000000128 <srai_12>:
 128:	00c00193          	li	gp,12
 12c:	818186b7          	lui	a3,0x81818
 130:	1816869b          	addiw	a3,a3,385 # ffffffff81818181 <_sim_end+0xffffffff81808185>
 134:	4006d713          	srai	a4,a3,0x0
 138:	818183b7          	lui	t2,0x81818
 13c:	1813839b          	addiw	t2,t2,385 # ffffffff81818181 <_sim_end+0xffffffff81808185>
 140:	1a771863          	bne	a4,t2,2f0 <failed>

0000000000000144 <srai_13>:
 144:	00d00193          	li	gp,13
 148:	818186b7          	lui	a3,0x81818
 14c:	1816869b          	addiw	a3,a3,385 # ffffffff81818181 <_sim_end+0xffffffff81808185>
 150:	4016d713          	srai	a4,a3,0x1
 154:	c0c0c3b7          	lui	t2,0xc0c0c
 158:	0c03839b          	addiw	t2,t2,192 # ffffffffc0c0c0c0 <_sim_end+0xffffffffc0bfc0c4>
 15c:	18771a63          	bne	a4,t2,2f0 <failed>

0000000000000160 <srai_14>:
 160:	00e00193          	li	gp,14
 164:	818186b7          	lui	a3,0x81818
 168:	1816869b          	addiw	a3,a3,385 # ffffffff81818181 <_sim_end+0xffffffff81808185>
 16c:	4076d713          	srai	a4,a3,0x7
 170:	ff0303b7          	lui	t2,0xff030
 174:	3033839b          	addiw	t2,t2,771 # ffffffffff030303 <_sim_end+0xffffffffff020307>
 178:	16771c63          	bne	a4,t2,2f0 <failed>

000000000000017c <srai_15>:
 17c:	00f00193          	li	gp,15
 180:	818186b7          	lui	a3,0x81818
 184:	1816869b          	addiw	a3,a3,385 # ffffffff81818181 <_sim_end+0xffffffff81808185>
 188:	40e6d713          	srai	a4,a3,0xe
 18c:	fffe03b7          	lui	t2,0xfffe0
 190:	6063839b          	addiw	t2,t2,1542 # fffffffffffe0606 <_sim_end+0xfffffffffffd060a>
 194:	14771e63          	bne	a4,t2,2f0 <failed>

0000000000000198 <srai_16>:
 198:	01000193          	li	gp,16
 19c:	818186b7          	lui	a3,0x81818
 1a0:	1816869b          	addiw	a3,a3,385 # ffffffff81818181 <_sim_end+0xffffffff81808185>
 1a4:	41f6d713          	srai	a4,a3,0x1f
 1a8:	fff00393          	li	t2,-1
 1ac:	14771263          	bne	a4,t2,2f0 <failed>

00000000000001b0 <srai_17>:
 1b0:	01100193          	li	gp,17
 1b4:	800005b7          	lui	a1,0x80000
 1b8:	4075d593          	srai	a1,a1,0x7
 1bc:	ff0003b7          	lui	t2,0xff000
 1c0:	12759863          	bne	a1,t2,2f0 <failed>

00000000000001c4 <srai_18>:
 1c4:	01200193          	li	gp,18
 1c8:	00000213          	li	tp,0
 1cc:	800000b7          	lui	ra,0x80000
 1d0:	4070d713          	srai	a4,ra,0x7
 1d4:	00070313          	mv	t1,a4
 1d8:	00120213          	addi	tp,tp,1 # 1 <_start+0x1>
 1dc:	00200293          	li	t0,2
 1e0:	fe5216e3          	bne	tp,t0,1cc <srai_18+0x8>
 1e4:	ff0003b7          	lui	t2,0xff000
 1e8:	10731463          	bne	t1,t2,2f0 <failed>

00000000000001ec <srai_19>:
 1ec:	01300193          	li	gp,19
 1f0:	00000213          	li	tp,0
 1f4:	800000b7          	lui	ra,0x80000
 1f8:	40e0d713          	srai	a4,ra,0xe
 1fc:	00000013          	nop
 200:	00070313          	mv	t1,a4
 204:	00120213          	addi	tp,tp,1 # 1 <_start+0x1>
 208:	00200293          	li	t0,2
 20c:	fe5214e3          	bne	tp,t0,1f4 <srai_19+0x8>
 210:	fffe03b7          	lui	t2,0xfffe0
 214:	0c731e63          	bne	t1,t2,2f0 <failed>

0000000000000218 <srai_20>:
 218:	01400193          	li	gp,20
 21c:	00000213          	li	tp,0
 220:	800000b7          	lui	ra,0x80000
 224:	0010809b          	addiw	ra,ra,1 # ffffffff80000001 <_sim_end+0xffffffff7fff0005>
 228:	41f0d713          	srai	a4,ra,0x1f
 22c:	00000013          	nop
 230:	00000013          	nop
 234:	00070313          	mv	t1,a4
 238:	00120213          	addi	tp,tp,1 # 1 <_start+0x1>
 23c:	00200293          	li	t0,2
 240:	fe5210e3          	bne	tp,t0,220 <srai_20+0x8>
 244:	fff00393          	li	t2,-1
 248:	0a731463          	bne	t1,t2,2f0 <failed>

000000000000024c <srai_21>:
 24c:	01500193          	li	gp,21
 250:	00000213          	li	tp,0
 254:	800000b7          	lui	ra,0x80000
 258:	4070d713          	srai	a4,ra,0x7
 25c:	00120213          	addi	tp,tp,1 # 1 <_start+0x1>
 260:	00200293          	li	t0,2
 264:	fe5218e3          	bne	tp,t0,254 <srai_21+0x8>
 268:	ff0003b7          	lui	t2,0xff000
 26c:	08771263          	bne	a4,t2,2f0 <failed>

0000000000000270 <srai_22>:
 270:	01600193          	li	gp,22
 274:	00000213          	li	tp,0
 278:	800000b7          	lui	ra,0x80000
 27c:	00000013          	nop
 280:	40e0d713          	srai	a4,ra,0xe
 284:	00120213          	addi	tp,tp,1 # 1 <_start+0x1>
 288:	00200293          	li	t0,2
 28c:	fe5216e3          	bne	tp,t0,278 <srai_22+0x8>
 290:	fffe03b7          	lui	t2,0xfffe0
 294:	04771e63          	bne	a4,t2,2f0 <failed>

0000000000000298 <srai_23>:
 298:	01700193          	li	gp,23
 29c:	00000213          	li	tp,0
 2a0:	800000b7          	lui	ra,0x80000
 2a4:	0010809b          	addiw	ra,ra,1 # ffffffff80000001 <_sim_end+0xffffffff7fff0005>
 2a8:	00000013          	nop
 2ac:	00000013          	nop
 2b0:	41f0d713          	srai	a4,ra,0x1f
 2b4:	00120213          	addi	tp,tp,1 # 1 <_start+0x1>
 2b8:	00200293          	li	t0,2
 2bc:	fe5212e3          	bne	tp,t0,2a0 <srai_23+0x8>
 2c0:	fff00393          	li	t2,-1
 2c4:	02771663          	bne	a4,t2,2f0 <failed>

00000000000002c8 <srai_24>:
 2c8:	01800193          	li	gp,24
 2cc:	40405093          	srai	ra,zero,0x4
 2d0:	00000393          	li	t2,0
 2d4:	00709e63          	bne	ra,t2,2f0 <failed>

00000000000002d8 <srai_25>:
 2d8:	01900193          	li	gp,25
 2dc:	02100093          	li	ra,33
 2e0:	40a0d013          	srai	zero,ra,0xa
 2e4:	00000393          	li	t2,0
 2e8:	00701463          	bne	zero,t2,2f0 <failed>

00000000000002ec <pass>:
 2ec:	00000193          	li	gp,0

00000000000002f0 <failed>:
 2f0:	00342023          	sw	gp,0(s0)

00000000000002f4 <main_exit>:
 2f4:	00012403          	lw	s0,0(sp)
 2f8:	00810113          	addi	sp,sp,8
 2fc:	00008067          	ret
