
./finish/srai.elf:     file format elf64-littleriscv
./finish/srai.elf
architecture: riscv:rv64, flags 0x00000112:
EXEC_P, HAS_SYMS, D_PAGED
start address 0x0000000000000000

Program Header:
0x70000003 off    0x00000000000012f8 vaddr 0x0000000000000000 paddr 0x0000000000000000 align 2**0
         filesz 0x000000000000001a memsz 0x0000000000000000 flags r--
    LOAD off    0x0000000000001000 vaddr 0x0000000000000000 paddr 0x0000000000000000 align 2**12
         filesz 0x00000000000002f8 memsz 0x00000000000002f8 flags r-x

Sections:
Idx Name          Size      VMA               LMA               File off  Algn
  0 .text         000002f8  0000000000000000  0000000000000000  00001000  2**2
                  CONTENTS, ALLOC, LOAD, READONLY, CODE
  1 .riscv.attributes 0000001a  0000000000000000  0000000000000000  000012f8  2**0
                  CONTENTS, READONLY
SYMBOL TABLE:
0000000000000000 l    d  .text	0000000000000000 .text
0000000000000000 l    d  .riscv.attributes	0000000000000000 .riscv.attributes
0000000000000000 l    df *ABS*	0000000000000000 setup.o
0000000000000000 l       .text	0000000000000000 _start
0000000000000000 l       .text	0000000000000000 init_stack
0000000000000008 l       .text	0000000000000000 SystemInit
000000000000000c l       .text	0000000000000000 SystemExit
000000000000001c l       .text	0000000000000000 dead_loop
0000000000000000 l    df *ABS*	0000000000000000 srai.o
0000000000000028 l       .text	0000000000000000 srai_2
00000000000002e8 l       .text	0000000000000000 failed
0000000000000044 l       .text	0000000000000000 srai_3
0000000000000058 l       .text	0000000000000000 srai_4
000000000000006c l       .text	0000000000000000 srai_5
0000000000000080 l       .text	0000000000000000 srai_6
0000000000000098 l       .text	0000000000000000 srai_7
00000000000000b4 l       .text	0000000000000000 srai_8
00000000000000d0 l       .text	0000000000000000 srai_9
00000000000000ec l       .text	0000000000000000 srai_10
0000000000000108 l       .text	0000000000000000 srai_11
0000000000000120 l       .text	0000000000000000 srai_12
000000000000013c l       .text	0000000000000000 srai_13
0000000000000158 l       .text	0000000000000000 srai_14
0000000000000174 l       .text	0000000000000000 srai_15
0000000000000190 l       .text	0000000000000000 srai_16
00000000000001a8 l       .text	0000000000000000 srai_17
00000000000001bc l       .text	0000000000000000 srai_18
00000000000001e4 l       .text	0000000000000000 srai_19
0000000000000210 l       .text	0000000000000000 srai_20
0000000000000244 l       .text	0000000000000000 srai_21
0000000000000268 l       .text	0000000000000000 srai_22
0000000000000290 l       .text	0000000000000000 srai_23
00000000000002c0 l       .text	0000000000000000 srai_24
00000000000002d0 l       .text	0000000000000000 srai_25
00000000000002e4 l       .text	0000000000000000 pass
00000000000002ec l       .text	0000000000000000 main_exit
000000000000fffc g       .text	0000000000000000 _sim_end
0000000000000020 g       .text	0000000000000000 main
0000000000009000 g       .text	0000000000000000 _answer
000000000000fff0 g       .text	0000000000000000 _stack


Contents of section .text:
 0000 17010100 130101ff ef008001 97020100  ................
 0010 938202ff 1303f0ff 23a06200 6f000000  ........#.b.o...
 0020 130e0400 938e0000 93012000 9b06f0ff  .......... .....
 0030 93967602 13d70640 9b03f0ff 93937302  ..v....@......s.
 0040 6314772a 93013000 b7060080 13d71640  c.w*..0........@
 0050 b70300c0 631a7728 93014000 b7060080  ....c.w(..@.....
 0060 13d77640 b70300ff 63107728 93015000  ..v@....c.w(..P.
 0070 b7060080 13d7e640 b703feff 63167726  .......@....c.w&
 0080 93016000 b7060080 9b861600 13d7f641  ..`............A
 0090 9303f0ff 631a7724 93017000 b7060080  ....c.w$..p.....
 00a0 9b86f6ff 13d70640 b7030080 9b83f3ff  .......@........
 00b0 631c7722 93018000 b7060080 9b86f6ff  c.w"............
 00c0 13d71640 b7030040 9b83f3ff 631e7720  ...@...@....c.w 
 00d0 93019000 b7060080 9b86f6ff 13d77640  ..............v@
 00e0 b7030001 9b83f3ff 63107720 9301a000  ........c.w ....
 00f0 b7060080 9b86f6ff 13d7e640 b7030200  ...........@....
 0100 9b83f3ff 6312771e 9301b000 b7060080  ....c.w.........
 0110 9b86f6ff 13d7f641 93030000 6316771c  .......A....c.w.
 0120 9301c000 b7868181 9b861618 13d70640  ...............@
 0130 b7838181 9b831318 6318771a 9301d000  ........c.w.....
 0140 b7868181 9b861618 13d71640 b7c3c0c0  ...........@....
 0150 9b83030c 631a7718 9301e000 b7868181  ....c.w.........
 0160 9b861618 13d77640 b70303ff 9b833330  ......v@......30
 0170 631c7716 9301f000 b7868181 9b861618  c.w.............
 0180 13d7e640 b703feff 9b836360 631e7714  ...@......c`c.w.
 0190 93010001 b7868181 9b861618 13d7f641  ...............A
 01a0 9303f0ff 63127714 93011001 b7050080  ....c.w.........
 01b0 93d57540 b70300ff 63987512 93012001  ..u@....c.u... .
 01c0 13020000 b7000080 13d77040 13030700  ..........p@....
 01d0 13021200 93022000 e31652fe b70300ff  ...... ...R.....
 01e0 63147310 93013001 13020000 b7000080  c.s...0.........
 01f0 13d7e040 13000000 13030700 13021200  ...@............
 0200 93022000 e31452fe b703feff 631e730c  .. ...R.....c.s.
 0210 93014001 13020000 b7000080 9b801000  ..@.............
 0220 13d7f041 13000000 13000000 13030700  ...A............
 0230 13021200 93022000 e31052fe 9303f0ff  ...... ...R.....
 0240 6314730a 93015001 13020000 b7000080  c.s...P.........
 0250 13d77040 13021200 93022000 e31852fe  ..p@...... ...R.
 0260 b70300ff 63127708 93016001 13020000  ....c.w...`.....
 0270 b7000080 13000000 13d7e040 13021200  ...........@....
 0280 93022000 e31652fe b703feff 631e7704  .. ...R.....c.w.
 0290 93017001 13020000 b7000080 9b801000  ..p.............
 02a0 13000000 13000000 13d7f041 13021200  ...........A....
 02b0 93022000 e31252fe 9303f0ff 63167702  .. ...R.....c.w.
 02c0 93018001 93504040 93030000 639e7000  .....P@@....c.p.
 02d0 93019001 93001002 13d0a040 93030000  ...........@....
 02e0 63147000 93010000 23203400 93800e00  c.p.....# 4.....
 02f0 13040e00 67800000                    ....g...        
Contents of section .riscv.attributes:
 0000 41190000 00726973 63760001 0f000000  A....riscv......
 0010 05727636 34693270 3100               .rv64i2p1.      

Disassembly of section .text:

0000000000000000 <_start>:
   0:	00010117          	auipc	sp,0x10
   4:	ff010113          	addi	sp,sp,-16 # fff0 <_stack>

0000000000000008 <SystemInit>:
   8:	018000ef          	jal	20 <main>

000000000000000c <SystemExit>:
   c:	00010297          	auipc	t0,0x10
  10:	ff028293          	addi	t0,t0,-16 # fffc <_sim_end>
  14:	fff00313          	li	t1,-1
  18:	0062a023          	sw	t1,0(t0)

000000000000001c <dead_loop>:
  1c:	0000006f          	j	1c <dead_loop>

0000000000000020 <main>:
  20:	00040e13          	mv	t3,s0
  24:	00008e93          	mv	t4,ra

0000000000000028 <srai_2>:
  28:	00200193          	li	gp,2
  2c:	fff0069b          	addiw	a3,zero,-1
  30:	02769693          	slli	a3,a3,0x27
  34:	4006d713          	srai	a4,a3,0x0
  38:	fff0039b          	addiw	t2,zero,-1
  3c:	02739393          	slli	t2,t2,0x27
  40:	2a771463          	bne	a4,t2,2e8 <failed>

0000000000000044 <srai_3>:
  44:	00300193          	li	gp,3
  48:	800006b7          	lui	a3,0x80000
  4c:	4016d713          	srai	a4,a3,0x1
  50:	c00003b7          	lui	t2,0xc0000
  54:	28771a63          	bne	a4,t2,2e8 <failed>

0000000000000058 <srai_4>:
  58:	00400193          	li	gp,4
  5c:	800006b7          	lui	a3,0x80000
  60:	4076d713          	srai	a4,a3,0x7
  64:	ff0003b7          	lui	t2,0xff000
  68:	28771063          	bne	a4,t2,2e8 <failed>

000000000000006c <srai_5>:
  6c:	00500193          	li	gp,5
  70:	800006b7          	lui	a3,0x80000
  74:	40e6d713          	srai	a4,a3,0xe
  78:	fffe03b7          	lui	t2,0xfffe0
  7c:	26771663          	bne	a4,t2,2e8 <failed>

0000000000000080 <srai_6>:
  80:	00600193          	li	gp,6
  84:	800006b7          	lui	a3,0x80000
  88:	0016869b          	addiw	a3,a3,1 # ffffffff80000001 <_sim_end+0xffffffff7fff0005>
  8c:	41f6d713          	srai	a4,a3,0x1f
  90:	fff00393          	li	t2,-1
  94:	24771a63          	bne	a4,t2,2e8 <failed>

0000000000000098 <srai_7>:
  98:	00700193          	li	gp,7
  9c:	800006b7          	lui	a3,0x80000
  a0:	fff6869b          	addiw	a3,a3,-1 # 7fffffff <_sim_end+0x7fff0003>
  a4:	4006d713          	srai	a4,a3,0x0
  a8:	800003b7          	lui	t2,0x80000
  ac:	fff3839b          	addiw	t2,t2,-1 # 7fffffff <_sim_end+0x7fff0003>
  b0:	22771c63          	bne	a4,t2,2e8 <failed>

00000000000000b4 <srai_8>:
  b4:	00800193          	li	gp,8
  b8:	800006b7          	lui	a3,0x80000
  bc:	fff6869b          	addiw	a3,a3,-1 # 7fffffff <_sim_end+0x7fff0003>
  c0:	4016d713          	srai	a4,a3,0x1
  c4:	400003b7          	lui	t2,0x40000
  c8:	fff3839b          	addiw	t2,t2,-1 # 3fffffff <_sim_end+0x3fff0003>
  cc:	20771e63          	bne	a4,t2,2e8 <failed>

00000000000000d0 <srai_9>:
  d0:	00900193          	li	gp,9
  d4:	800006b7          	lui	a3,0x80000
  d8:	fff6869b          	addiw	a3,a3,-1 # 7fffffff <_sim_end+0x7fff0003>
  dc:	4076d713          	srai	a4,a3,0x7
  e0:	010003b7          	lui	t2,0x1000
  e4:	fff3839b          	addiw	t2,t2,-1 # ffffff <_sim_end+0xff0003>
  e8:	20771063          	bne	a4,t2,2e8 <failed>

00000000000000ec <srai_10>:
  ec:	00a00193          	li	gp,10
  f0:	800006b7          	lui	a3,0x80000
  f4:	fff6869b          	addiw	a3,a3,-1 # 7fffffff <_sim_end+0x7fff0003>
  f8:	40e6d713          	srai	a4,a3,0xe
  fc:	000203b7          	lui	t2,0x20
 100:	fff3839b          	addiw	t2,t2,-1 # 1ffff <_sim_end+0x10003>
 104:	1e771263          	bne	a4,t2,2e8 <failed>

0000000000000108 <srai_11>:
 108:	00b00193          	li	gp,11
 10c:	800006b7          	lui	a3,0x80000
 110:	fff6869b          	addiw	a3,a3,-1 # 7fffffff <_sim_end+0x7fff0003>
 114:	41f6d713          	srai	a4,a3,0x1f
 118:	00000393          	li	t2,0
 11c:	1c771663          	bne	a4,t2,2e8 <failed>

0000000000000120 <srai_12>:
 120:	00c00193          	li	gp,12
 124:	818186b7          	lui	a3,0x81818
 128:	1816869b          	addiw	a3,a3,385 # ffffffff81818181 <_sim_end+0xffffffff81808185>
 12c:	4006d713          	srai	a4,a3,0x0
 130:	818183b7          	lui	t2,0x81818
 134:	1813839b          	addiw	t2,t2,385 # ffffffff81818181 <_sim_end+0xffffffff81808185>
 138:	1a771863          	bne	a4,t2,2e8 <failed>

000000000000013c <srai_13>:
 13c:	00d00193          	li	gp,13
 140:	818186b7          	lui	a3,0x81818
 144:	1816869b          	addiw	a3,a3,385 # ffffffff81818181 <_sim_end+0xffffffff81808185>
 148:	4016d713          	srai	a4,a3,0x1
 14c:	c0c0c3b7          	lui	t2,0xc0c0c
 150:	0c03839b          	addiw	t2,t2,192 # ffffffffc0c0c0c0 <_sim_end+0xffffffffc0bfc0c4>
 154:	18771a63          	bne	a4,t2,2e8 <failed>

0000000000000158 <srai_14>:
 158:	00e00193          	li	gp,14
 15c:	818186b7          	lui	a3,0x81818
 160:	1816869b          	addiw	a3,a3,385 # ffffffff81818181 <_sim_end+0xffffffff81808185>
 164:	4076d713          	srai	a4,a3,0x7
 168:	ff0303b7          	lui	t2,0xff030
 16c:	3033839b          	addiw	t2,t2,771 # ffffffffff030303 <_sim_end+0xffffffffff020307>
 170:	16771c63          	bne	a4,t2,2e8 <failed>

0000000000000174 <srai_15>:
 174:	00f00193          	li	gp,15
 178:	818186b7          	lui	a3,0x81818
 17c:	1816869b          	addiw	a3,a3,385 # ffffffff81818181 <_sim_end+0xffffffff81808185>
 180:	40e6d713          	srai	a4,a3,0xe
 184:	fffe03b7          	lui	t2,0xfffe0
 188:	6063839b          	addiw	t2,t2,1542 # fffffffffffe0606 <_sim_end+0xfffffffffffd060a>
 18c:	14771e63          	bne	a4,t2,2e8 <failed>

0000000000000190 <srai_16>:
 190:	01000193          	li	gp,16
 194:	818186b7          	lui	a3,0x81818
 198:	1816869b          	addiw	a3,a3,385 # ffffffff81818181 <_sim_end+0xffffffff81808185>
 19c:	41f6d713          	srai	a4,a3,0x1f
 1a0:	fff00393          	li	t2,-1
 1a4:	14771263          	bne	a4,t2,2e8 <failed>

00000000000001a8 <srai_17>:
 1a8:	01100193          	li	gp,17
 1ac:	800005b7          	lui	a1,0x80000
 1b0:	4075d593          	srai	a1,a1,0x7
 1b4:	ff0003b7          	lui	t2,0xff000
 1b8:	12759863          	bne	a1,t2,2e8 <failed>

00000000000001bc <srai_18>:
 1bc:	01200193          	li	gp,18
 1c0:	00000213          	li	tp,0
 1c4:	800000b7          	lui	ra,0x80000
 1c8:	4070d713          	srai	a4,ra,0x7
 1cc:	00070313          	mv	t1,a4
 1d0:	00120213          	addi	tp,tp,1 # 1 <_start+0x1>
 1d4:	00200293          	li	t0,2
 1d8:	fe5216e3          	bne	tp,t0,1c4 <srai_18+0x8>
 1dc:	ff0003b7          	lui	t2,0xff000
 1e0:	10731463          	bne	t1,t2,2e8 <failed>

00000000000001e4 <srai_19>:
 1e4:	01300193          	li	gp,19
 1e8:	00000213          	li	tp,0
 1ec:	800000b7          	lui	ra,0x80000
 1f0:	40e0d713          	srai	a4,ra,0xe
 1f4:	00000013          	nop
 1f8:	00070313          	mv	t1,a4
 1fc:	00120213          	addi	tp,tp,1 # 1 <_start+0x1>
 200:	00200293          	li	t0,2
 204:	fe5214e3          	bne	tp,t0,1ec <srai_19+0x8>
 208:	fffe03b7          	lui	t2,0xfffe0
 20c:	0c731e63          	bne	t1,t2,2e8 <failed>

0000000000000210 <srai_20>:
 210:	01400193          	li	gp,20
 214:	00000213          	li	tp,0
 218:	800000b7          	lui	ra,0x80000
 21c:	0010809b          	addiw	ra,ra,1 # ffffffff80000001 <_sim_end+0xffffffff7fff0005>
 220:	41f0d713          	srai	a4,ra,0x1f
 224:	00000013          	nop
 228:	00000013          	nop
 22c:	00070313          	mv	t1,a4
 230:	00120213          	addi	tp,tp,1 # 1 <_start+0x1>
 234:	00200293          	li	t0,2
 238:	fe5210e3          	bne	tp,t0,218 <srai_20+0x8>
 23c:	fff00393          	li	t2,-1
 240:	0a731463          	bne	t1,t2,2e8 <failed>

0000000000000244 <srai_21>:
 244:	01500193          	li	gp,21
 248:	00000213          	li	tp,0
 24c:	800000b7          	lui	ra,0x80000
 250:	4070d713          	srai	a4,ra,0x7
 254:	00120213          	addi	tp,tp,1 # 1 <_start+0x1>
 258:	00200293          	li	t0,2
 25c:	fe5218e3          	bne	tp,t0,24c <srai_21+0x8>
 260:	ff0003b7          	lui	t2,0xff000
 264:	08771263          	bne	a4,t2,2e8 <failed>

0000000000000268 <srai_22>:
 268:	01600193          	li	gp,22
 26c:	00000213          	li	tp,0
 270:	800000b7          	lui	ra,0x80000
 274:	00000013          	nop
 278:	40e0d713          	srai	a4,ra,0xe
 27c:	00120213          	addi	tp,tp,1 # 1 <_start+0x1>
 280:	00200293          	li	t0,2
 284:	fe5216e3          	bne	tp,t0,270 <srai_22+0x8>
 288:	fffe03b7          	lui	t2,0xfffe0
 28c:	04771e63          	bne	a4,t2,2e8 <failed>

0000000000000290 <srai_23>:
 290:	01700193          	li	gp,23
 294:	00000213          	li	tp,0
 298:	800000b7          	lui	ra,0x80000
 29c:	0010809b          	addiw	ra,ra,1 # ffffffff80000001 <_sim_end+0xffffffff7fff0005>
 2a0:	00000013          	nop
 2a4:	00000013          	nop
 2a8:	41f0d713          	srai	a4,ra,0x1f
 2ac:	00120213          	addi	tp,tp,1 # 1 <_start+0x1>
 2b0:	00200293          	li	t0,2
 2b4:	fe5212e3          	bne	tp,t0,298 <srai_23+0x8>
 2b8:	fff00393          	li	t2,-1
 2bc:	02771663          	bne	a4,t2,2e8 <failed>

00000000000002c0 <srai_24>:
 2c0:	01800193          	li	gp,24
 2c4:	40405093          	srai	ra,zero,0x4
 2c8:	00000393          	li	t2,0
 2cc:	00709e63          	bne	ra,t2,2e8 <failed>

00000000000002d0 <srai_25>:
 2d0:	01900193          	li	gp,25
 2d4:	02100093          	li	ra,33
 2d8:	40a0d013          	srai	zero,ra,0xa
 2dc:	00000393          	li	t2,0
 2e0:	00701463          	bne	zero,t2,2e8 <failed>

00000000000002e4 <pass>:
 2e4:	00000193          	li	gp,0

00000000000002e8 <failed>:
 2e8:	00342023          	sw	gp,0(s0)

00000000000002ec <main_exit>:
 2ec:	000e8093          	mv	ra,t4
 2f0:	000e0413          	mv	s0,t3
 2f4:	00008067          	ret
