
./finish/srli.elf:     file format elf64-littleriscv
./finish/srli.elf
architecture: riscv:rv64, flags 0x00000112:
EXEC_P, HAS_SYMS, D_PAGED
start address 0x0000000000000000

Program Header:
0x70000003 off    0x000000000000119c vaddr 0x0000000000000000 paddr 0x0000000000000000 align 2**0
         filesz 0x000000000000001a memsz 0x0000000000000000 flags r--
    LOAD off    0x0000000000001000 vaddr 0x0000000000000000 paddr 0x0000000000000000 align 2**12
         filesz 0x000000000000019c memsz 0x000000000000019c flags r-x

Sections:
Idx Name          Size      VMA               LMA               File off  Algn
  0 .text         0000019c  0000000000000000  0000000000000000  00001000  2**2
                  CONTENTS, ALLOC, LOAD, READONLY, CODE
  1 .riscv.attributes 0000001a  0000000000000000  0000000000000000  0000119c  2**0
                  CONTENTS, READONLY
SYMBOL TABLE:
0000000000000000 l    d  .text	0000000000000000 .text
0000000000000000 l    d  .riscv.attributes	0000000000000000 .riscv.attributes
0000000000000000 l    df *ABS*	0000000000000000 setup.o
0000000000000000 l       .text	0000000000000000 _start
0000000000000000 l       .text	0000000000000000 init_stack
0000000000000008 l       .text	0000000000000000 SystemInit
000000000000000c l       .text	0000000000000000 SystemExit
000000000000001c l       .text	0000000000000000 dead_loop
0000000000000000 l    df *ABS*	0000000000000000 srli.o
0000000000000030 l       .text	0000000000000000 srli_17
000000000000018c l       .text	0000000000000000 failed
0000000000000048 l       .text	0000000000000000 srli_18
0000000000000074 l       .text	0000000000000000 srli_19
00000000000000a4 l       .text	0000000000000000 srli_20
00000000000000dc l       .text	0000000000000000 srli_21
0000000000000104 l       .text	0000000000000000 srli_22
0000000000000130 l       .text	0000000000000000 srli_23
0000000000000164 l       .text	0000000000000000 srli_24
0000000000000174 l       .text	0000000000000000 srli_25
0000000000000188 l       .text	0000000000000000 pass
0000000000000190 l       .text	0000000000000000 main_exit
000000000000fffc g       .text	0000000000000000 _sim_end
0000000000000020 g       .text	0000000000000000 main
0000000000009000 g       .text	0000000000000000 _answer
000000000000fff0 g       .text	0000000000000000 _stack


Contents of section .text:
 0000 17010100 130101ff ef008001 97020100  ................
 0010 938202ff 1303f0ff 23a06200 6f000000  ........#.b.o...
 0020 130181ff 23208100 17940000 130484fd  ....# ..........
 0030 93011001 9b051000 9395f501 93d57500  ..............u.
 0040 b7030001 63947514 93012001 13020000  ....c.u... .....
 0050 9b001000 9390f001 13d77000 13030700  ..........p.....
 0060 13021200 93022000 e31452fe b7030001  ...... ...R.....
 0070 631e7310 93013001 13020000 9b001000  c.s...0.........
 0080 9390f001 13d7e000 13000000 13030700  ................
 0090 13021200 93022000 e31252fe b7030200  ...... ...R.....
 00a0 6316730e 93014001 13020000 9b001000  c.s...@.........
 00b0 9390f001 93801000 13d7f001 13000000  ................
 00c0 13000000 13030700 13021200 93022000  .............. .
 00d0 e31e52fc 93031000 631a730a 93015001  ..R.....c.s...P.
 00e0 13020000 9b001000 9390f001 13d77000  ..............p.
 00f0 13021200 93022000 e31652fe b7030001  ...... ...R.....
 0100 63167708 93016001 13020000 9b001000  c.w...`.........
 0110 9390f001 13000000 13d7e000 13021200  ................
 0120 93022000 e31452fe b7030200 63107706  .. ...R.....c.w.
 0130 93017001 13020000 9b001000 9390f001  ..p.............
 0140 93801000 13000000 13000000 13d7f001  ................
 0150 13021200 93022000 e31052fe 93031000  ...... ...R.....
 0160 63167702 93018001 93504000 93030000  c.w......P@.....
 0170 639e7000 93019001 93001002 13d0a000  c.p.............
 0180 93030000 63147000 93010000 23203400  ....c.p.....# 4.
 0190 03240100 13018100 67800000           .$......g...    
Contents of section .riscv.attributes:
 0000 41190000 00726973 63760001 0f000000  A....riscv......
 0010 05727636 34693270 3100               .rv64i2p1.      

Disassembly of section .text:

0000000000000000 <_start>:
   0:	00010117          	auipc	sp,0x10
   4:	ff010113          	addi	sp,sp,-16 # fff0 <_stack>

0000000000000008 <SystemInit>:
   8:	018000ef          	jal	20 <main>

000000000000000c <SystemExit>:
   c:	00010297          	auipc	t0,0x10
  10:	ff028293          	addi	t0,t0,-16 # fffc <_sim_end>
  14:	fff00313          	li	t1,-1
  18:	0062a023          	sw	t1,0(t0)

000000000000001c <dead_loop>:
  1c:	0000006f          	j	1c <dead_loop>

0000000000000020 <main>:
  20:	ff810113          	addi	sp,sp,-8
  24:	00812023          	sw	s0,0(sp)
  28:	00009417          	auipc	s0,0x9
  2c:	fd840413          	addi	s0,s0,-40 # 9000 <_answer>

0000000000000030 <srli_17>:
  30:	01100193          	li	gp,17
  34:	0010059b          	addiw	a1,zero,1
  38:	01f59593          	slli	a1,a1,0x1f
  3c:	0075d593          	srli	a1,a1,0x7
  40:	010003b7          	lui	t2,0x1000
  44:	14759463          	bne	a1,t2,18c <failed>

0000000000000048 <srli_18>:
  48:	01200193          	li	gp,18
  4c:	00000213          	li	tp,0
  50:	0010009b          	addiw	ra,zero,1
  54:	01f09093          	slli	ra,ra,0x1f
  58:	0070d713          	srli	a4,ra,0x7
  5c:	00070313          	mv	t1,a4
  60:	00120213          	addi	tp,tp,1 # 1 <_start+0x1>
  64:	00200293          	li	t0,2
  68:	fe5214e3          	bne	tp,t0,50 <srli_18+0x8>
  6c:	010003b7          	lui	t2,0x1000
  70:	10731e63          	bne	t1,t2,18c <failed>

0000000000000074 <srli_19>:
  74:	01300193          	li	gp,19
  78:	00000213          	li	tp,0
  7c:	0010009b          	addiw	ra,zero,1
  80:	01f09093          	slli	ra,ra,0x1f
  84:	00e0d713          	srli	a4,ra,0xe
  88:	00000013          	nop
  8c:	00070313          	mv	t1,a4
  90:	00120213          	addi	tp,tp,1 # 1 <_start+0x1>
  94:	00200293          	li	t0,2
  98:	fe5212e3          	bne	tp,t0,7c <srli_19+0x8>
  9c:	000203b7          	lui	t2,0x20
  a0:	0e731663          	bne	t1,t2,18c <failed>

00000000000000a4 <srli_20>:
  a4:	01400193          	li	gp,20
  a8:	00000213          	li	tp,0
  ac:	0010009b          	addiw	ra,zero,1
  b0:	01f09093          	slli	ra,ra,0x1f
  b4:	00108093          	addi	ra,ra,1
  b8:	01f0d713          	srli	a4,ra,0x1f
  bc:	00000013          	nop
  c0:	00000013          	nop
  c4:	00070313          	mv	t1,a4
  c8:	00120213          	addi	tp,tp,1 # 1 <_start+0x1>
  cc:	00200293          	li	t0,2
  d0:	fc521ee3          	bne	tp,t0,ac <srli_20+0x8>
  d4:	00100393          	li	t2,1
  d8:	0a731a63          	bne	t1,t2,18c <failed>

00000000000000dc <srli_21>:
  dc:	01500193          	li	gp,21
  e0:	00000213          	li	tp,0
  e4:	0010009b          	addiw	ra,zero,1
  e8:	01f09093          	slli	ra,ra,0x1f
  ec:	0070d713          	srli	a4,ra,0x7
  f0:	00120213          	addi	tp,tp,1 # 1 <_start+0x1>
  f4:	00200293          	li	t0,2
  f8:	fe5216e3          	bne	tp,t0,e4 <srli_21+0x8>
  fc:	010003b7          	lui	t2,0x1000
 100:	08771663          	bne	a4,t2,18c <failed>

0000000000000104 <srli_22>:
 104:	01600193          	li	gp,22
 108:	00000213          	li	tp,0
 10c:	0010009b          	addiw	ra,zero,1
 110:	01f09093          	slli	ra,ra,0x1f
 114:	00000013          	nop
 118:	00e0d713          	srli	a4,ra,0xe
 11c:	00120213          	addi	tp,tp,1 # 1 <_start+0x1>
 120:	00200293          	li	t0,2
 124:	fe5214e3          	bne	tp,t0,10c <srli_22+0x8>
 128:	000203b7          	lui	t2,0x20
 12c:	06771063          	bne	a4,t2,18c <failed>

0000000000000130 <srli_23>:
 130:	01700193          	li	gp,23
 134:	00000213          	li	tp,0
 138:	0010009b          	addiw	ra,zero,1
 13c:	01f09093          	slli	ra,ra,0x1f
 140:	00108093          	addi	ra,ra,1
 144:	00000013          	nop
 148:	00000013          	nop
 14c:	01f0d713          	srli	a4,ra,0x1f
 150:	00120213          	addi	tp,tp,1 # 1 <_start+0x1>
 154:	00200293          	li	t0,2
 158:	fe5210e3          	bne	tp,t0,138 <srli_23+0x8>
 15c:	00100393          	li	t2,1
 160:	02771663          	bne	a4,t2,18c <failed>

0000000000000164 <srli_24>:
 164:	01800193          	li	gp,24
 168:	00405093          	srli	ra,zero,0x4
 16c:	00000393          	li	t2,0
 170:	00709e63          	bne	ra,t2,18c <failed>

0000000000000174 <srli_25>:
 174:	01900193          	li	gp,25
 178:	02100093          	li	ra,33
 17c:	00a0d013          	srli	zero,ra,0xa
 180:	00000393          	li	t2,0
 184:	00701463          	bne	zero,t2,18c <failed>

0000000000000188 <pass>:
 188:	00000193          	li	gp,0

000000000000018c <failed>:
 18c:	00342023          	sw	gp,0(s0)

0000000000000190 <main_exit>:
 190:	00012403          	lw	s0,0(sp)
 194:	00810113          	addi	sp,sp,8
 198:	00008067          	ret
