
./finish/srli.elf:     file format elf64-littleriscv
./finish/srli.elf
architecture: riscv:rv64, flags 0x00000112:
EXEC_P, HAS_SYMS, D_PAGED
start address 0x0000000000000000

Program Header:
0x70000003 off    0x0000000000001194 vaddr 0x0000000000000000 paddr 0x0000000000000000 align 2**0
         filesz 0x000000000000001a memsz 0x0000000000000000 flags r--
    LOAD off    0x0000000000001000 vaddr 0x0000000000000000 paddr 0x0000000000000000 align 2**12
         filesz 0x0000000000000194 memsz 0x0000000000000194 flags r-x

Sections:
Idx Name          Size      VMA               LMA               File off  Algn
  0 .text         00000194  0000000000000000  0000000000000000  00001000  2**2
                  CONTENTS, ALLOC, LOAD, READONLY, CODE
  1 .riscv.attributes 0000001a  0000000000000000  0000000000000000  00001194  2**0
                  CONTENTS, READONLY
SYMBOL TABLE:
0000000000000000 l    d  .text	0000000000000000 .text
0000000000000000 l    d  .riscv.attributes	0000000000000000 .riscv.attributes
0000000000000000 l    df *ABS*	0000000000000000 setup.o
0000000000000000 l       .text	0000000000000000 _start
0000000000000000 l       .text	0000000000000000 init_stack
0000000000000008 l       .text	0000000000000000 SystemInit
000000000000000c l       .text	0000000000000000 SystemExit
000000000000001c l       .text	0000000000000000 dead_loop
0000000000000000 l    df *ABS*	0000000000000000 srli.o
0000000000000028 l       .text	0000000000000000 srli_17
0000000000000184 l       .text	0000000000000000 failed
0000000000000040 l       .text	0000000000000000 srli_18
000000000000006c l       .text	0000000000000000 srli_19
000000000000009c l       .text	0000000000000000 srli_20
00000000000000d4 l       .text	0000000000000000 srli_21
00000000000000fc l       .text	0000000000000000 srli_22
0000000000000128 l       .text	0000000000000000 srli_23
000000000000015c l       .text	0000000000000000 srli_24
000000000000016c l       .text	0000000000000000 srli_25
0000000000000180 l       .text	0000000000000000 pass
0000000000000188 l       .text	0000000000000000 main_exit
000000000000fffc g       .text	0000000000000000 _sim_end
0000000000000020 g       .text	0000000000000000 main
0000000000009000 g       .text	0000000000000000 _answer
000000000000fff0 g       .text	0000000000000000 _stack


Contents of section .text:
 0000 17010100 130101ff ef008001 97020100  ................
 0010 938202ff 1303f0ff 23a06200 6f000000  ........#.b.o...
 0020 130e0400 938e0000 93011001 9b051000  ................
 0030 9395f501 93d57500 b7030001 63947514  ......u.....c.u.
 0040 93012001 13020000 9b001000 9390f001  .. .............
 0050 13d77000 13030700 13021200 93022000  ..p........... .
 0060 e31452fe b7030001 631e7310 93013001  ..R.....c.s...0.
 0070 13020000 9b001000 9390f001 13d7e000  ................
 0080 13000000 13030700 13021200 93022000  .............. .
 0090 e31252fe b7030200 6316730e 93014001  ..R.....c.s...@.
 00a0 13020000 9b001000 9390f001 93801000  ................
 00b0 13d7f001 13000000 13000000 13030700  ................
 00c0 13021200 93022000 e31e52fc 93031000  ...... ...R.....
 00d0 631a730a 93015001 13020000 9b001000  c.s...P.........
 00e0 9390f001 13d77000 13021200 93022000  ......p....... .
 00f0 e31652fe b7030001 63167708 93016001  ..R.....c.w...`.
 0100 13020000 9b001000 9390f001 13000000  ................
 0110 13d7e000 13021200 93022000 e31452fe  .......... ...R.
 0120 b7030200 63107706 93017001 13020000  ....c.w...p.....
 0130 9b001000 9390f001 93801000 13000000  ................
 0140 13000000 13d7f001 13021200 93022000  .............. .
 0150 e31052fe 93031000 63167702 93018001  ..R.....c.w.....
 0160 93504000 93030000 639e7000 93019001  .P@.....c.p.....
 0170 93001002 13d0a000 93030000 63147000  ............c.p.
 0180 93010000 23203400 93800e00 13040e00  ....# 4.........
 0190 67800000                             g...            
Contents of section .riscv.attributes:
 0000 41190000 00726973 63760001 0f000000  A....riscv......
 0010 05727636 34693270 3100               .rv64i2p1.      

Disassembly of section .text:

0000000000000000 <_start>:
   0:	00010117          	auipc	sp,0x10
   4:	ff010113          	addi	sp,sp,-16 # fff0 <_stack>

0000000000000008 <SystemInit>:
   8:	018000ef          	jal	20 <main>

000000000000000c <SystemExit>:
   c:	00010297          	auipc	t0,0x10
  10:	ff028293          	addi	t0,t0,-16 # fffc <_sim_end>
  14:	fff00313          	li	t1,-1
  18:	0062a023          	sw	t1,0(t0)

000000000000001c <dead_loop>:
  1c:	0000006f          	j	1c <dead_loop>

0000000000000020 <main>:
  20:	00040e13          	mv	t3,s0
  24:	00008e93          	mv	t4,ra

0000000000000028 <srli_17>:
  28:	01100193          	li	gp,17
  2c:	0010059b          	addiw	a1,zero,1
  30:	01f59593          	slli	a1,a1,0x1f
  34:	0075d593          	srli	a1,a1,0x7
  38:	010003b7          	lui	t2,0x1000
  3c:	14759463          	bne	a1,t2,184 <failed>

0000000000000040 <srli_18>:
  40:	01200193          	li	gp,18
  44:	00000213          	li	tp,0
  48:	0010009b          	addiw	ra,zero,1
  4c:	01f09093          	slli	ra,ra,0x1f
  50:	0070d713          	srli	a4,ra,0x7
  54:	00070313          	mv	t1,a4
  58:	00120213          	addi	tp,tp,1 # 1 <_start+0x1>
  5c:	00200293          	li	t0,2
  60:	fe5214e3          	bne	tp,t0,48 <srli_18+0x8>
  64:	010003b7          	lui	t2,0x1000
  68:	10731e63          	bne	t1,t2,184 <failed>

000000000000006c <srli_19>:
  6c:	01300193          	li	gp,19
  70:	00000213          	li	tp,0
  74:	0010009b          	addiw	ra,zero,1
  78:	01f09093          	slli	ra,ra,0x1f
  7c:	00e0d713          	srli	a4,ra,0xe
  80:	00000013          	nop
  84:	00070313          	mv	t1,a4
  88:	00120213          	addi	tp,tp,1 # 1 <_start+0x1>
  8c:	00200293          	li	t0,2
  90:	fe5212e3          	bne	tp,t0,74 <srli_19+0x8>
  94:	000203b7          	lui	t2,0x20
  98:	0e731663          	bne	t1,t2,184 <failed>

000000000000009c <srli_20>:
  9c:	01400193          	li	gp,20
  a0:	00000213          	li	tp,0
  a4:	0010009b          	addiw	ra,zero,1
  a8:	01f09093          	slli	ra,ra,0x1f
  ac:	00108093          	addi	ra,ra,1
  b0:	01f0d713          	srli	a4,ra,0x1f
  b4:	00000013          	nop
  b8:	00000013          	nop
  bc:	00070313          	mv	t1,a4
  c0:	00120213          	addi	tp,tp,1 # 1 <_start+0x1>
  c4:	00200293          	li	t0,2
  c8:	fc521ee3          	bne	tp,t0,a4 <srli_20+0x8>
  cc:	00100393          	li	t2,1
  d0:	0a731a63          	bne	t1,t2,184 <failed>

00000000000000d4 <srli_21>:
  d4:	01500193          	li	gp,21
  d8:	00000213          	li	tp,0
  dc:	0010009b          	addiw	ra,zero,1
  e0:	01f09093          	slli	ra,ra,0x1f
  e4:	0070d713          	srli	a4,ra,0x7
  e8:	00120213          	addi	tp,tp,1 # 1 <_start+0x1>
  ec:	00200293          	li	t0,2
  f0:	fe5216e3          	bne	tp,t0,dc <srli_21+0x8>
  f4:	010003b7          	lui	t2,0x1000
  f8:	08771663          	bne	a4,t2,184 <failed>

00000000000000fc <srli_22>:
  fc:	01600193          	li	gp,22
 100:	00000213          	li	tp,0
 104:	0010009b          	addiw	ra,zero,1
 108:	01f09093          	slli	ra,ra,0x1f
 10c:	00000013          	nop
 110:	00e0d713          	srli	a4,ra,0xe
 114:	00120213          	addi	tp,tp,1 # 1 <_start+0x1>
 118:	00200293          	li	t0,2
 11c:	fe5214e3          	bne	tp,t0,104 <srli_22+0x8>
 120:	000203b7          	lui	t2,0x20
 124:	06771063          	bne	a4,t2,184 <failed>

0000000000000128 <srli_23>:
 128:	01700193          	li	gp,23
 12c:	00000213          	li	tp,0
 130:	0010009b          	addiw	ra,zero,1
 134:	01f09093          	slli	ra,ra,0x1f
 138:	00108093          	addi	ra,ra,1
 13c:	00000013          	nop
 140:	00000013          	nop
 144:	01f0d713          	srli	a4,ra,0x1f
 148:	00120213          	addi	tp,tp,1 # 1 <_start+0x1>
 14c:	00200293          	li	t0,2
 150:	fe5210e3          	bne	tp,t0,130 <srli_23+0x8>
 154:	00100393          	li	t2,1
 158:	02771663          	bne	a4,t2,184 <failed>

000000000000015c <srli_24>:
 15c:	01800193          	li	gp,24
 160:	00405093          	srli	ra,zero,0x4
 164:	00000393          	li	t2,0
 168:	00709e63          	bne	ra,t2,184 <failed>

000000000000016c <srli_25>:
 16c:	01900193          	li	gp,25
 170:	02100093          	li	ra,33
 174:	00a0d013          	srli	zero,ra,0xa
 178:	00000393          	li	t2,0
 17c:	00701463          	bne	zero,t2,184 <failed>

0000000000000180 <pass>:
 180:	00000193          	li	gp,0

0000000000000184 <failed>:
 184:	00342023          	sw	gp,0(s0)

0000000000000188 <main_exit>:
 188:	000e8093          	mv	ra,t4
 18c:	000e0413          	mv	s0,t3
 190:	00008067          	ret
